ARM GAS  C:\Users\jzapn\AppData\Local\Temp\cccuKIg8.s 			page 1


   1              		.syntax unified
   2              		.cpu cortex-m0
   3              		.fpu softvfp
   4              		.eabi_attribute 20, 1
   5              		.eabi_attribute 21, 1
   6              		.eabi_attribute 23, 3
   7              		.eabi_attribute 24, 1
   8              		.eabi_attribute 25, 1
   9              		.eabi_attribute 26, 1
  10              		.eabi_attribute 30, 1
  11              		.eabi_attribute 34, 0
  12              		.eabi_attribute 18, 4
  13              		.thumb
  14              		.syntax unified
  15              		.file	"btns.c"
  16              		.text
  17              	.Ltext0:
  18              		.cfi_sections	.debug_frame
  19              		.section	.text.BTN_getPressed,"ax",%progbits
  20              		.align	2
  21              		.global	BTN_getPressed
  22              		.code	16
  23              		.thumb_func
  24              		.type	BTN_getPressed, %function
  25              	BTN_getPressed:
  26              	.LFB32:
  27              		.file 1 "btns.c"
   1:btns.c        **** /* ========================================
   2:btns.c        ****  *
   3:btns.c        ****  * Copyright YOUR COMPANY, THE YEAR
   4:btns.c        ****  * All Rights Reserved
   5:btns.c        ****  * UNPUBLISHED, LICENSED SOFTWARE.
   6:btns.c        ****  *
   7:btns.c        ****  * CONFIDENTIAL AND PROPRIETARY INFORMATION
   8:btns.c        ****  * WHICH IS THE PROPERTY OF your company.
   9:btns.c        ****  *
  10:btns.c        ****  * ========================================
  11:btns.c        **** */
  12:btns.c        **** #define BTNS_H_
  13:btns.c        **** #include <btns.h>
  14:btns.c        **** #include <project.h>
  15:btns.c        **** 
  16:btns.c        **** DevState device;
  17:btns.c        **** /**
  18:btns.c        ****  * @fn bool BTN_getPressed ( BTN_NAMES_t button )
  19:btns.c        ****  * @param button the button name to read
  20:btns.c        ****  * @return true if an unacknowledged press has occurred
  21:btns.c        ****  *
  22:btns.c        ****  * This function will check the acknowledged flag for a given button
  23:btns.c        ****  * and return the appropriate value. If a press has been acknowledged
  24:btns.c        ****  * (by calling this function) then then the current press is not
  25:btns.c        ****  * returned.
  26:btns.c        ****  *
  27:btns.c        ****  * Presses are persistent until read!
  28:btns.c        ****  */
  29:btns.c        **** bool BTN_getPressed()
  30:btns.c        **** {
ARM GAS  C:\Users\jzapn\AppData\Local\Temp\cccuKIg8.s 			page 2


  28              		.loc 1 30 0
  29              		.cfi_startproc
  30              		@ args = 0, pretend = 0, frame = 0
  31              		@ frame_needed = 0, uses_anonymous_args = 0
  32              		@ link register save eliminated.
  33              	.LVL0:
  31:btns.c        **** 	bool result = false;
  32:btns.c        **** 	if (device.btn.isPressed)
  34              		.loc 1 32 0
  35 0000 084B     		ldr	r3, .L5
  36 0002 1B7A     		ldrb	r3, [r3, #8]
  37 0004 002B     		cmp	r3, #0
  38 0006 08D0     		beq	.L3
  33:btns.c        **** 	{
  34:btns.c        **** 		//------------------------------------------------------
  35:btns.c        **** 		// only return the press if not acknowledged
  36:btns.c        **** 		//------------------------------------------------------
  37:btns.c        **** 		if (!device.btn.isAcknowledged)
  39              		.loc 1 37 0
  40 0008 064B     		ldr	r3, .L5
  41 000a 9B7A     		ldrb	r3, [r3, #10]
  42 000c 002B     		cmp	r3, #0
  43 000e 06D1     		bne	.L4
  44              	.LVL1:
  38:btns.c        **** 		{
  39:btns.c        **** 			result = true;
  40:btns.c        **** 			device.btn.isAcknowledged = true;
  45              		.loc 1 40 0
  46 0010 0122     		movs	r2, #1
  47 0012 044B     		ldr	r3, .L5
  48 0014 9A72     		strb	r2, [r3, #10]
  39:btns.c        **** 			device.btn.isAcknowledged = true;
  49              		.loc 1 39 0
  50 0016 0120     		movs	r0, #1
  51 0018 02E0     		b	.L2
  52              	.LVL2:
  53              	.L3:
  31:btns.c        **** 	if (device.btn.isPressed)
  54              		.loc 1 31 0
  55 001a 0020     		movs	r0, #0
  56 001c 00E0     		b	.L2
  57              	.L4:
  58 001e 0020     		movs	r0, #0
  59              	.LVL3:
  60              	.L2:
  41:btns.c        **** 		}
  42:btns.c        **** 	}
  43:btns.c        **** 
  44:btns.c        **** 	return result;
  45:btns.c        **** }
  61              		.loc 1 45 0
  62              		@ sp needed
  63 0020 7047     		bx	lr
  64              	.L6:
  65 0022 C046     		.align	2
  66              	.L5:
  67 0024 00000000 		.word	device
ARM GAS  C:\Users\jzapn\AppData\Local\Temp\cccuKIg8.s 			page 3


  68              		.cfi_endproc
  69              	.LFE32:
  70              		.size	BTN_getPressed, .-BTN_getPressed
  71              		.section	.text.BTN_getHeld,"ax",%progbits
  72              		.align	2
  73              		.global	BTN_getHeld
  74              		.code	16
  75              		.thumb_func
  76              		.type	BTN_getHeld, %function
  77              	BTN_getHeld:
  78              	.LFB33:
  46:btns.c        **** 
  47:btns.c        **** /**
  48:btns.c        ****  * @fn bool BTN_getHeld ( BTN_NAMES_t button )
  49:btns.c        ****  * @param button the name of the button to read
  50:btns.c        ****  * @return true if the button is held
  51:btns.c        ****  *
  52:btns.c        ****  * This function will return the value of the held flag. Releasing the
  53:btns.c        ****  * button clears the flag. There is no time base on held events.
  54:btns.c        ****  */
  55:btns.c        **** bool BTN_getHeld()
  56:btns.c        **** {
  79              		.loc 1 56 0
  80              		.cfi_startproc
  81              		@ args = 0, pretend = 0, frame = 0
  82              		@ frame_needed = 0, uses_anonymous_args = 0
  83              		@ link register save eliminated.
  57:btns.c        **** 	return device.btn.isHeld;
  84              		.loc 1 57 0
  85 0000 014B     		ldr	r3, .L8
  86 0002 587A     		ldrb	r0, [r3, #9]
  58:btns.c        **** }
  87              		.loc 1 58 0
  88              		@ sp needed
  89 0004 7047     		bx	lr
  90              	.L9:
  91 0006 C046     		.align	2
  92              	.L8:
  93 0008 00000000 		.word	device
  94              		.cfi_endproc
  95              	.LFE33:
  96              		.size	BTN_getHeld, .-BTN_getHeld
  97              		.section	.text.BTN_task,"ax",%progbits
  98              		.align	2
  99              		.global	BTN_task
 100              		.code	16
 101              		.thumb_func
 102              		.type	BTN_task, %function
 103              	BTN_task:
 104              	.LFB34:
  59:btns.c        **** 
  60:btns.c        **** void BTN_task(void)
  61:btns.c        **** {
 105              		.loc 1 61 0
 106              		.cfi_startproc
 107              		@ args = 0, pretend = 0, frame = 0
 108              		@ frame_needed = 0, uses_anonymous_args = 0
ARM GAS  C:\Users\jzapn\AppData\Local\Temp\cccuKIg8.s 			page 4


 109 0000 10B5     		push	{r4, lr}
 110              		.cfi_def_cfa_offset 8
 111              		.cfi_offset 4, -8
 112              		.cfi_offset 14, -4
  62:btns.c        **** 
  63:btns.c        **** 	//--------------------------------------------
  64:btns.c        **** 	// get the values from the GPIO
  65:btns.c        **** 	device.btn.sense = !BTN_Read();
 113              		.loc 1 65 0
 114 0002 FFF7FEFF 		bl	BTN_Read
 115              	.LVL4:
 116 0006 4342     		rsbs	r3, r0, #0
 117 0008 5841     		adcs	r0, r0, r3
 118 000a C0B2     		uxtb	r0, r0
 119 000c 124B     		ldr	r3, .L15
 120 000e 1874     		strb	r0, [r3, #16]
  66:btns.c        **** 
  67:btns.c        **** 	//--------------------------------------------
  68:btns.c        **** 	// software debounce for press / hold events.
  69:btns.c        **** 	//--------------------------------------------
  70:btns.c        **** 	if (device.btn.sense == 1)
 121              		.loc 1 70 0
 122 0010 0028     		cmp	r0, #0
 123 0012 16D0     		beq	.L11
  71:btns.c        **** 	{
  72:btns.c        **** 		if (device.btn.timer < BTN_HOLD_TIME)
 124              		.loc 1 72 0
 125 0014 DB68     		ldr	r3, [r3, #12]
 126 0016 114A     		ldr	r2, .L15+4
 127 0018 9342     		cmp	r3, r2
 128 001a 03D8     		bhi	.L12
  73:btns.c        **** 		{
  74:btns.c        **** 			device.btn.timer += BTN_TICK_TIME;
 129              		.loc 1 74 0
 130 001c 0133     		adds	r3, r3, #1
 131 001e 0E4A     		ldr	r2, .L15
 132 0020 D360     		str	r3, [r2, #12]
 133 0022 02E0     		b	.L13
 134              	.L12:
  75:btns.c        **** 		}
  76:btns.c        **** 		else
  77:btns.c        **** 		{
  78:btns.c        **** 			device.btn.isHeld = true;
 135              		.loc 1 78 0
 136 0024 0122     		movs	r2, #1
 137 0026 0C4B     		ldr	r3, .L15
 138 0028 5A72     		strb	r2, [r3, #9]
 139              	.L13:
  79:btns.c        **** 		}
  80:btns.c        **** 
  81:btns.c        **** 		if (device.btn.timer > BTN_PRESS_MSEC)
 140              		.loc 1 81 0
 141 002a 0B4B     		ldr	r3, .L15
 142 002c DB68     		ldr	r3, [r3, #12]
 143 002e 322B     		cmp	r3, #50
 144 0030 11D9     		bls	.L10
  82:btns.c        **** 		{
ARM GAS  C:\Users\jzapn\AppData\Local\Temp\cccuKIg8.s 			page 5


  83:btns.c        **** 			if (!device.btn.isAcknowledged)
 145              		.loc 1 83 0
 146 0032 094B     		ldr	r3, .L15
 147 0034 9B7A     		ldrb	r3, [r3, #10]
 148 0036 002B     		cmp	r3, #0
 149 0038 0DD1     		bne	.L10
  84:btns.c        **** 			{
  85:btns.c        **** 				device.btn.isPressed = true;
 150              		.loc 1 85 0
 151 003a 0122     		movs	r2, #1
 152 003c 064B     		ldr	r3, .L15
 153 003e 1A72     		strb	r2, [r3, #8]
 154 0040 09E0     		b	.L10
 155              	.L11:
  86:btns.c        **** 			}
  87:btns.c        **** 		}
  88:btns.c        **** 	}
  89:btns.c        **** 	else
  90:btns.c        **** 	{
  91:btns.c        **** 		device.btn.timer = 0;
 156              		.loc 1 91 0
 157 0042 054B     		ldr	r3, .L15
 158 0044 0022     		movs	r2, #0
 159 0046 DA60     		str	r2, [r3, #12]
  92:btns.c        **** 		device.btn.isHeld = false;
 160              		.loc 1 92 0
 161 0048 5A72     		strb	r2, [r3, #9]
  93:btns.c        **** 
  94:btns.c        **** 		if (device.btn.isAcknowledged == true)
 162              		.loc 1 94 0
 163 004a 9B7A     		ldrb	r3, [r3, #10]
 164 004c 002B     		cmp	r3, #0
 165 004e 02D0     		beq	.L10
  95:btns.c        **** 		{
  96:btns.c        **** 			device.btn.isPressed = false;
 166              		.loc 1 96 0
 167 0050 014B     		ldr	r3, .L15
 168 0052 1A72     		strb	r2, [r3, #8]
  97:btns.c        **** 			device.btn.isAcknowledged = false;
 169              		.loc 1 97 0
 170 0054 9A72     		strb	r2, [r3, #10]
 171              	.L10:
  98:btns.c        **** 		}
  99:btns.c        **** 	}
 100:btns.c        **** }
 172              		.loc 1 100 0
 173              		@ sp needed
 174 0056 10BD     		pop	{r4, pc}
 175              	.L16:
 176              		.align	2
 177              	.L15:
 178 0058 00000000 		.word	device
 179 005c 9F860100 		.word	99999
 180              		.cfi_endproc
 181              	.LFE34:
 182              		.size	BTN_task, .-BTN_task
 183              		.comm	device,20,4
ARM GAS  C:\Users\jzapn\AppData\Local\Temp\cccuKIg8.s 			page 6


 184              		.text
 185              	.Letext0:
 186              		.file 2 "c:\\program files (x86)\\cypress\\psoc creator\\4.4\\psoc creator\\import\\gnu\\arm\\5.4.
 187              		.file 3 "c:\\program files (x86)\\cypress\\psoc creator\\4.4\\psoc creator\\import\\gnu\\arm\\5.4.
 188              		.file 4 "./btns.h"
 189              		.file 5 "Generated_Source\\PSoC4/BTN.h"