ARM GAS  C:\Users\jzapn\AppData\Local\Temp\ccKtXakY.s 			page 1


   1              		.syntax unified
   2              		.cpu cortex-m0
   3              		.fpu softvfp
   4              		.eabi_attribute 20, 1
   5              		.eabi_attribute 21, 1
   6              		.eabi_attribute 23, 3
   7              		.eabi_attribute 24, 1
   8              		.eabi_attribute 25, 1
   9              		.eabi_attribute 26, 1
  10              		.eabi_attribute 30, 1
  11              		.eabi_attribute 34, 0
  12              		.eabi_attribute 18, 4
  13              		.thumb
  14              		.syntax unified
  15              		.file	"main.c"
  16              		.text
  17              	.Ltext0:
  18              		.cfi_sections	.debug_frame
  19              		.section	.text.showColor,"ax",%progbits
  20              		.align	2
  21              		.global	showColor
  22              		.code	16
  23              		.thumb_func
  24              		.type	showColor, %function
  25              	showColor:
  26              	.LFB35:
  27              		.file 1 "main.c"
   1:main.c        **** /* ========================================
   2:main.c        ****  *
   3:main.c        ****  * Copyright YOUR COMPANY, THE YEAR
   4:main.c        ****  * All Rights Reserved
   5:main.c        ****  * UNPUBLISHED, LICENSED SOFTWARE.
   6:main.c        ****  *
   7:main.c        ****  * CONFIDENTIAL AND PROPRIETARY INFORMATION
   8:main.c        ****  * WHICH IS THE PROPERTY OF your company.
   9:main.c        ****  *
  10:main.c        ****  * ========================================
  11:main.c        **** */
  12:main.c        **** #include "project.h"
  13:main.c        **** #include <btns.h>
  14:main.c        **** #define LED_ON 0u
  15:main.c        **** #define LED_OFF 1u
  16:main.c        **** #include "stdio.h"
  17:main.c        **** /* Turn on an LED connected to a SW controlled pin */
  18:main.c        **** 
  19:main.c        **** extern DevState device;
  20:main.c        **** extern uint32_t sendbuffer;
  21:main.c        **** uint8_t rgb[3] = {255, 0, 0};
  22:main.c        **** uint8_t ind = 0, state = 1;
  23:main.c        **** uint32_t delaytmr = 0;
  24:main.c        **** uint32_t counter = 0, statetmr = 0, fade = 0;
  25:main.c        **** void showColor(uint8_t r, uint8_t g, uint8_t b, uint32_t delay);
  26:main.c        **** void colorWipe(uint8_t r, uint8_t g, uint8_t b, uint32_t delay);
  27:main.c        **** void theaterChase(uint8_t r, uint8_t g, uint8_t b, uint32_t delay);
  28:main.c        **** void rainbowCycle(uint32_t frames, uint8_t frameAdvance, uint32_t pixelAdvance, uint32_t delay);
  29:main.c        **** void detonate(uint8_t r, uint8_t g, uint8_t b, uint32_t startdelayms);
  30:main.c        **** 
ARM GAS  C:\Users\jzapn\AppData\Local\Temp\ccKtXakY.s 			page 2


  31:main.c        **** void device_task(void)
  32:main.c        **** {
  33:main.c        ****   if (device.state != device.prev_state)
  34:main.c        ****   {
  35:main.c        ****     device.new_state = true;
  36:main.c        ****   }
  37:main.c        ****   device.prev_state = device.state;
  38:main.c        ****   switch (device.state)
  39:main.c        ****   {
  40:main.c        ****   case IDLE:
  41:main.c        ****   {
  42:main.c        ****     if (device.new_state)
  43:main.c        ****     {
  44:main.c        ****       showColor(0, 0, 0, 100);
  45:main.c        ****       device.new_state = 0;
  46:main.c        ****       state = 1;
  47:main.c        ****     }
  48:main.c        ****     showColor(rgb[0], rgb[1], rgb[2], 0);
  49:main.c        **** 
  50:main.c        ****     if (rgb[1] < 255 && state == 1)
  51:main.c        ****     {
  52:main.c        ****       rgb[1]++;
  53:main.c        ****       rgb[0]--;
  54:main.c        ****       if (rgb[1] == 255)
  55:main.c        ****         state = 2;
  56:main.c        ****     }
  57:main.c        ****     if (rgb[2] < 255 && state == 2)
  58:main.c        ****     {
  59:main.c        ****       rgb[2]++;
  60:main.c        ****       rgb[1]--;
  61:main.c        ****       if (rgb[2] == 255)
  62:main.c        ****         state = 3;
  63:main.c        ****     }
  64:main.c        ****     if (state == 3)
  65:main.c        ****     {
  66:main.c        ****       rgb[0]++;
  67:main.c        ****       rgb[2]--;
  68:main.c        ****       if (rgb[2] == 0)
  69:main.c        ****         state = 1;
  70:main.c        ****     }
  71:main.c        **** 
  72:main.c        ****     if (BTN_getPressed())
  73:main.c        ****     {
  74:main.c        ****       LEDA_Write(LED_ON);
  75:main.c        ****       device.state = THEATER_CHASE;
  76:main.c        ****     }
  77:main.c        **** 
  78:main.c        ****     break;
  79:main.c        ****   }
  80:main.c        **** 
  81:main.c        ****   case THEATER_CHASE:
  82:main.c        ****   {
  83:main.c        ****     if (device.new_state)
  84:main.c        ****     {
  85:main.c        ****       showColor(0, 0, 0, 100);
  86:main.c        ****       device.new_state = 0;
  87:main.c        ****       state = 1;
ARM GAS  C:\Users\jzapn\AppData\Local\Temp\ccKtXakY.s 			page 3


  88:main.c        ****       delaytmr = 0;
  89:main.c        ****     }
  90:main.c        ****     if (BTN_getPressed())
  91:main.c        ****     {
  92:main.c        ****       state += 1;
  93:main.c        ****       if (state > 3)
  94:main.c        ****       {
  95:main.c        ****         state = 1;
  96:main.c        ****       }
  97:main.c        ****     }
  98:main.c        ****     if (BTN_getHeld())
  99:main.c        ****     {
 100:main.c        ****       device.state = RAINBOW;
 101:main.c        ****     }
 102:main.c        ****     // Send a theater pixel chase in...
 103:main.c        ****     switch (state)
 104:main.c        ****     {
 105:main.c        ****     case 1:
 106:main.c        ****       theaterChase(127, 127, 127, 500); // White
 107:main.c        ****       break;
 108:main.c        ****     case 2:
 109:main.c        ****       theaterChase(127, 0, 0, 250); // Red
 110:main.c        ****       break;
 111:main.c        ****     case 3:
 112:main.c        ****       theaterChase(0, 0, 127, 100); // Blue
 113:main.c        ****       break;
 114:main.c        ****     }
 115:main.c        **** 
 116:main.c        ****     break;
 117:main.c        ****   }
 118:main.c        ****   case RAINBOW:
 119:main.c        ****   {
 120:main.c        ****     if (device.new_state)
 121:main.c        ****     {
 122:main.c        ****       showColor(0, 0, 0, 100);
 123:main.c        ****       device.new_state = 0;
 124:main.c        ****     }
 125:main.c        **** 
 126:main.c        ****     rainbowCycle(1000, 20, 5, 500);
 127:main.c        ****     if (BTN_getPressed())
 128:main.c        ****     {
 129:main.c        ****       device.state = EXPLODE;
 130:main.c        ****     }
 131:main.c        ****     break;
 132:main.c        ****   }
 133:main.c        ****   case EXPLODE:
 134:main.c        ****   {
 135:main.c        ****     if (device.new_state)
 136:main.c        ****     {
 137:main.c        ****       showColor(0, 0, 0, 100);
 138:main.c        ****       device.new_state = 0;
 139:main.c        ****       delaytmr = 0;
 140:main.c        ****       state = 1;
 141:main.c        ****       fade = 255;
 142:main.c        ****     }
 143:main.c        ****     detonate(255, 255, 255, 1000);
 144:main.c        ****     if (BTN_getPressed())
ARM GAS  C:\Users\jzapn\AppData\Local\Temp\ccKtXakY.s 			page 4


 145:main.c        ****     {
 146:main.c        ****       device.state = IDLE;
 147:main.c        ****     }
 148:main.c        ****     break;
 149:main.c        ****   }
 150:main.c        ****   }
 151:main.c        **** }
 152:main.c        **** 
 153:main.c        **** int main(void)
 154:main.c        **** {
 155:main.c        ****   CyGlobalIntEnable; /* Enable global interrupts. */
 156:main.c        ****   device.state = IDLE;
 157:main.c        ****   device.new_state = true;
 158:main.c        ****   uint32_t ticks = 0;
 159:main.c        ****   NeoPixel_Init();
 160:main.c        ****   for (;;)
 161:main.c        ****   {
 162:main.c        ****     BTN_task();
 163:main.c        ****     device_task();
 164:main.c        ****     if (ticks > 1000)
 165:main.c        ****     { //HeartBeat
 166:main.c        ****       LEDA_Write(!LEDA_Read());
 167:main.c        ****       ticks = 0;
 168:main.c        ****     }
 169:main.c        ****     ticks += 1;
 170:main.c        ****   }
 171:main.c        **** }
 172:main.c        **** 
 173:main.c        **** // Display a single color on the whole string
 174:main.c        **** void showColor(uint8_t r, uint8_t g, uint8_t b, uint32_t delay)
 175:main.c        **** {
  28              		.loc 1 175 0
  29              		.cfi_startproc
  30              		@ args = 0, pretend = 0, frame = 0
  31              		@ frame_needed = 0, uses_anonymous_args = 0
  32              	.LVL0:
  33 0000 F0B5     		push	{r4, r5, r6, r7, lr}
  34              		.cfi_def_cfa_offset 20
  35              		.cfi_offset 4, -20
  36              		.cfi_offset 5, -16
  37              		.cfi_offset 6, -12
  38              		.cfi_offset 7, -8
  39              		.cfi_offset 14, -4
  40 0002 4746     		mov	r7, r8
  41 0004 80B4     		push	{r7}
  42              		.cfi_def_cfa_offset 24
  43              		.cfi_offset 8, -24
  44 0006 0500     		movs	r5, r0
  45 0008 0E00     		movs	r6, r1
  46 000a 1700     		movs	r7, r2
  47 000c 9846     		mov	r8, r3
 176:main.c        ****   if (delaytmr == 0)
  48              		.loc 1 176 0
  49 000e 104B     		ldr	r3, .L7
  50              	.LVL1:
  51 0010 1B68     		ldr	r3, [r3]
  52 0012 002B     		cmp	r3, #0
ARM GAS  C:\Users\jzapn\AppData\Local\Temp\ccKtXakY.s 			page 5


  53 0014 07D0     		beq	.L6
  54 0016 11E0     		b	.L3
  55              	.LVL2:
  56              	.L4:
  57              	.LBB2:
 177:main.c        ****   {
 178:main.c        ****     for (int p = 0; p < PIXELS; p++)
 179:main.c        ****     {
 180:main.c        ****       NeoPixel_sendPixel(r, g, b);
  58              		.loc 1 180 0 discriminator 3
  59 0018 3A00     		movs	r2, r7
  60 001a 3100     		movs	r1, r6
  61 001c 2800     		movs	r0, r5
  62 001e FFF7FEFF 		bl	NeoPixel_sendPixel
  63              	.LVL3:
 178:main.c        ****     {
  64              		.loc 1 178 0 discriminator 3
  65 0022 0134     		adds	r4, r4, #1
  66              	.LVL4:
  67 0024 00E0     		b	.L2
  68              	.LVL5:
  69              	.L6:
  70              	.LBE2:
  71 0026 0024     		movs	r4, #0
  72              	.LVL6:
  73              	.L2:
  74              	.LBB3:
 178:main.c        ****     {
  75              		.loc 1 178 0 is_stmt 0 discriminator 1
  76 0028 182C     		cmp	r4, #24
  77 002a F5DD     		ble	.L4
  78              	.LBE3:
 181:main.c        ****     }
 182:main.c        ****     NeoPixel_show();
  79              		.loc 1 182 0 is_stmt 1
  80 002c FFF7FEFF 		bl	NeoPixel_show
  81              	.LVL7:
 183:main.c        ****     delaytmr = delay * 10;
  82              		.loc 1 183 0
  83 0030 4346     		mov	r3, r8
  84 0032 9B00     		lsls	r3, r3, #2
  85 0034 4344     		add	r3, r3, r8
  86 0036 5A00     		lsls	r2, r3, #1
  87 0038 054B     		ldr	r3, .L7
  88 003a 1A60     		str	r2, [r3]
  89              	.LVL8:
  90              	.L3:
 184:main.c        ****   }
 185:main.c        ****   if (delaytmr > 0)
  91              		.loc 1 185 0
  92 003c 044B     		ldr	r3, .L7
  93 003e 1B68     		ldr	r3, [r3]
  94 0040 002B     		cmp	r3, #0
  95 0042 02D0     		beq	.L1
 186:main.c        ****   {
 187:main.c        ****     delaytmr--;
  96              		.loc 1 187 0
ARM GAS  C:\Users\jzapn\AppData\Local\Temp\ccKtXakY.s 			page 6


  97 0044 013B     		subs	r3, r3, #1
  98 0046 024A     		ldr	r2, .L7
  99 0048 1360     		str	r3, [r2]
 100              	.L1:
 188:main.c        ****   }
 189:main.c        **** }
 101              		.loc 1 189 0
 102              		@ sp needed
 103              	.LVL9:
 104 004a 04BC     		pop	{r2}
 105 004c 9046     		mov	r8, r2
 106 004e F0BD     		pop	{r4, r5, r6, r7, pc}
 107              	.L8:
 108              		.align	2
 109              	.L7:
 110 0050 00000000 		.word	.LANCHOR0
 111              		.cfi_endproc
 112              	.LFE35:
 113              		.size	showColor, .-showColor
 114              		.section	.text.colorWipe,"ax",%progbits
 115              		.align	2
 116              		.global	colorWipe
 117              		.code	16
 118              		.thumb_func
 119              		.type	colorWipe, %function
 120              	colorWipe:
 121              	.LFB36:
 190:main.c        **** 
 191:main.c        **** // Fill the dots one after the other with a color
 192:main.c        **** // rewrite to lift the compare out of the loop
 193:main.c        **** void colorWipe(uint8_t r, uint8_t g, uint8_t b, uint32_t delay)
 194:main.c        **** {
 122              		.loc 1 194 0
 123              		.cfi_startproc
 124              		@ args = 0, pretend = 0, frame = 8
 125              		@ frame_needed = 0, uses_anonymous_args = 0
 126              	.LVL10:
 127 0000 F0B5     		push	{r4, r5, r6, r7, lr}
 128              		.cfi_def_cfa_offset 20
 129              		.cfi_offset 4, -20
 130              		.cfi_offset 5, -16
 131              		.cfi_offset 6, -12
 132              		.cfi_offset 7, -8
 133              		.cfi_offset 14, -4
 134 0002 5746     		mov	r7, r10
 135 0004 80B4     		push	{r7}
 136              		.cfi_def_cfa_offset 24
 137              		.cfi_offset 10, -24
 138 0006 82B0     		sub	sp, sp, #8
 139              		.cfi_def_cfa_offset 32
 140 0008 0090     		str	r0, [sp]
 141 000a 0191     		str	r1, [sp, #4]
 142 000c 1700     		movs	r7, r2
 143 000e 9A46     		mov	r10, r3
 195:main.c        ****   if (delaytmr == 0)
 144              		.loc 1 195 0
 145 0010 184B     		ldr	r3, .L19
ARM GAS  C:\Users\jzapn\AppData\Local\Temp\ccKtXakY.s 			page 7


 146              	.LVL11:
 147 0012 1B68     		ldr	r3, [r3]
 148 0014 002B     		cmp	r3, #0
 149 0016 1FD0     		beq	.L17
 150              	.LBB4:
 151 0018 21E0     		b	.L11
 152              	.LVL12:
 153              	.L12:
 154              	.LBB5:
 196:main.c        ****   {
 197:main.c        ****     for (uint32_t i = 0; i < PIXELS; i += (PIXELS / 5))
 198:main.c        ****     {
 199:main.c        **** 
 200:main.c        ****       uint32_t p = 0;
 201:main.c        ****       while (p++ <= i)
 202:main.c        ****       {
 203:main.c        ****         NeoPixel_sendPixel(r, g, b);
 155              		.loc 1 203 0
 156 001a 3A00     		movs	r2, r7
 157 001c 0199     		ldr	r1, [sp, #4]
 158 001e 0098     		ldr	r0, [sp]
 159 0020 FFF7FEFF 		bl	NeoPixel_sendPixel
 160              	.LVL13:
 201:main.c        ****       {
 161              		.loc 1 201 0
 162 0024 2300     		movs	r3, r4
 163 0026 00E0     		b	.L15
 164              	.LVL14:
 165              	.L18:
 166              	.LBE5:
 167 0028 0023     		movs	r3, #0
 168              	.L15:
 169              	.LVL15:
 170              	.LBB6:
 171 002a 5C1C     		adds	r4, r3, #1
 172              	.LVL16:
 173 002c 9D42     		cmp	r5, r3
 174 002e F4D2     		bcs	.L12
 175 0030 05E0     		b	.L13
 176              	.LVL17:
 177              	.L14:
 204:main.c        ****       }
 205:main.c        ****       while (p++ <= PIXELS)
 206:main.c        ****       {
 207:main.c        ****         NeoPixel_sendPixel(0, 0, 0);
 178              		.loc 1 207 0
 179 0032 0022     		movs	r2, #0
 180 0034 0021     		movs	r1, #0
 181 0036 0020     		movs	r0, #0
 182 0038 FFF7FEFF 		bl	NeoPixel_sendPixel
 183              	.LVL18:
 205:main.c        ****       {
 184              		.loc 1 205 0
 185 003c 3400     		movs	r4, r6
 186              	.LVL19:
 187              	.L13:
 188 003e 661C     		adds	r6, r4, #1
ARM GAS  C:\Users\jzapn\AppData\Local\Temp\ccKtXakY.s 			page 8


 189              	.LVL20:
 190 0040 192C     		cmp	r4, #25
 191 0042 F6D9     		bls	.L14
 208:main.c        ****       }
 209:main.c        ****       NeoPixel_show();
 192              		.loc 1 209 0 discriminator 2
 193 0044 FFF7FEFF 		bl	NeoPixel_show
 194              	.LVL21:
 210:main.c        ****       delaytmr = delay * 10;
 195              		.loc 1 210 0 discriminator 2
 196 0048 5346     		mov	r3, r10
 197 004a 9B00     		lsls	r3, r3, #2
 198 004c 5344     		add	r3, r3, r10
 199 004e 5A00     		lsls	r2, r3, #1
 200 0050 084B     		ldr	r3, .L19
 201 0052 1A60     		str	r2, [r3]
 202              	.LBE6:
 197:main.c        ****     {
 203              		.loc 1 197 0 discriminator 2
 204 0054 0535     		adds	r5, r5, #5
 205              	.LVL22:
 206 0056 00E0     		b	.L10
 207              	.LVL23:
 208              	.L17:
 209              	.LBE4:
 210 0058 0025     		movs	r5, #0
 211              	.LVL24:
 212              	.L10:
 213              	.LBB7:
 197:main.c        ****     {
 214              		.loc 1 197 0 is_stmt 0 discriminator 1
 215 005a 182D     		cmp	r5, #24
 216 005c E4D9     		bls	.L18
 217              	.LVL25:
 218              	.L11:
 219              	.LBE7:
 211:main.c        ****     }
 212:main.c        ****   }
 213:main.c        ****   if (delaytmr > 0)
 220              		.loc 1 213 0 is_stmt 1
 221 005e 054B     		ldr	r3, .L19
 222 0060 1B68     		ldr	r3, [r3]
 223 0062 002B     		cmp	r3, #0
 224 0064 02D0     		beq	.L9
 214:main.c        ****   {
 215:main.c        ****     delaytmr--;
 225              		.loc 1 215 0
 226 0066 013B     		subs	r3, r3, #1
 227 0068 024A     		ldr	r2, .L19
 228 006a 1360     		str	r3, [r2]
 229              	.L9:
 216:main.c        ****   }
 217:main.c        **** }
 230              		.loc 1 217 0
 231 006c 02B0     		add	sp, sp, #8
 232              		@ sp needed
 233              	.LVL26:
ARM GAS  C:\Users\jzapn\AppData\Local\Temp\ccKtXakY.s 			page 9


 234 006e 04BC     		pop	{r2}
 235 0070 9246     		mov	r10, r2
 236 0072 F0BD     		pop	{r4, r5, r6, r7, pc}
 237              	.L20:
 238              		.align	2
 239              	.L19:
 240 0074 00000000 		.word	.LANCHOR0
 241              		.cfi_endproc
 242              	.LFE36:
 243              		.size	colorWipe, .-colorWipe
 244              		.global	__aeabi_uidivmod
 245              		.section	.text.theaterChase,"ax",%progbits
 246              		.align	2
 247              		.global	theaterChase
 248              		.code	16
 249              		.thumb_func
 250              		.type	theaterChase, %function
 251              	theaterChase:
 252              	.LFB37:
 218:main.c        **** 
 219:main.c        **** // Theatre-style crawling lights.
 220:main.c        **** // Changes spacing to be dynmaic based on string size
 221:main.c        **** 
 222:main.c        **** #define THEATER_SPACING (PIXELS / 5)
 223:main.c        **** uint32_t q = 0;
 224:main.c        **** void theaterChase(uint8_t r, uint8_t g, uint8_t b, uint32_t delay)
 225:main.c        **** {
 253              		.loc 1 225 0
 254              		.cfi_startproc
 255              		@ args = 0, pretend = 0, frame = 8
 256              		@ frame_needed = 0, uses_anonymous_args = 0
 257              	.LVL27:
 258 0000 F0B5     		push	{r4, r5, r6, r7, lr}
 259              		.cfi_def_cfa_offset 20
 260              		.cfi_offset 4, -20
 261              		.cfi_offset 5, -16
 262              		.cfi_offset 6, -12
 263              		.cfi_offset 7, -8
 264              		.cfi_offset 14, -4
 265 0002 83B0     		sub	sp, sp, #12
 266              		.cfi_def_cfa_offset 32
 267 0004 0190     		str	r0, [sp, #4]
 268 0006 0E00     		movs	r6, r1
 269 0008 1700     		movs	r7, r2
 270 000a 1D00     		movs	r5, r3
 226:main.c        ****   if (q == THEATER_SPACING)
 271              		.loc 1 226 0
 272 000c 1B4B     		ldr	r3, .L30
 273              	.LVL28:
 274 000e 5B68     		ldr	r3, [r3, #4]
 275 0010 052B     		cmp	r3, #5
 276 0012 02D1     		bne	.L22
 227:main.c        ****   {
 228:main.c        ****     q = 0;
 277              		.loc 1 228 0
 278 0014 0022     		movs	r2, #0
 279              	.LVL29:
ARM GAS  C:\Users\jzapn\AppData\Local\Temp\ccKtXakY.s 			page 10


 280 0016 194B     		ldr	r3, .L30
 281 0018 5A60     		str	r2, [r3, #4]
 282              	.L22:
 229:main.c        ****   }
 230:main.c        ****   if (delaytmr == 0)
 283              		.loc 1 230 0
 284 001a 184B     		ldr	r3, .L30
 285 001c 1B68     		ldr	r3, [r3]
 286 001e 002B     		cmp	r3, #0
 287 0020 15D0     		beq	.L29
 288 0022 21E0     		b	.L24
 289              	.LVL30:
 290              	.L27:
 291              	.LBB8:
 231:main.c        ****   {
 232:main.c        ****     for (uint32_t i = 0; i < PIXELS; i++)
 233:main.c        ****     {
 234:main.c        ****       if ((i + q) % THEATER_SPACING == 0)
 292              		.loc 1 234 0
 293 0024 154B     		ldr	r3, .L30
 294 0026 5868     		ldr	r0, [r3, #4]
 295 0028 2018     		adds	r0, r4, r0
 296 002a 0521     		movs	r1, #5
 297 002c FFF7FEFF 		bl	__aeabi_uidivmod
 298              	.LVL31:
 299 0030 0029     		cmp	r1, #0
 300 0032 05D1     		bne	.L25
 235:main.c        ****       {
 236:main.c        ****         NeoPixel_sendPixel(r, g, b);
 301              		.loc 1 236 0
 302 0034 3A00     		movs	r2, r7
 303 0036 3100     		movs	r1, r6
 304 0038 0198     		ldr	r0, [sp, #4]
 305 003a FFF7FEFF 		bl	NeoPixel_sendPixel
 306              	.LVL32:
 307 003e 04E0     		b	.L26
 308              	.L25:
 237:main.c        ****       }
 238:main.c        ****       else
 239:main.c        ****       {
 240:main.c        ****         NeoPixel_sendPixel(0, 0, 0);
 309              		.loc 1 240 0
 310 0040 0022     		movs	r2, #0
 311 0042 0021     		movs	r1, #0
 312 0044 0020     		movs	r0, #0
 313 0046 FFF7FEFF 		bl	NeoPixel_sendPixel
 314              	.LVL33:
 315              	.L26:
 232:main.c        ****     {
 316              		.loc 1 232 0 discriminator 2
 317 004a 0134     		adds	r4, r4, #1
 318              	.LVL34:
 319 004c 00E0     		b	.L23
 320              	.LVL35:
 321              	.L29:
 322              	.LBE8:
 323 004e 0024     		movs	r4, #0
ARM GAS  C:\Users\jzapn\AppData\Local\Temp\ccKtXakY.s 			page 11


 324              	.LVL36:
 325              	.L23:
 326              	.LBB9:
 232:main.c        ****     {
 327              		.loc 1 232 0 is_stmt 0 discriminator 1
 328 0050 182C     		cmp	r4, #24
 329 0052 E7D9     		bls	.L27
 330              	.LBE9:
 241:main.c        ****       }
 242:main.c        ****     }
 243:main.c        ****     NeoPixel_show();
 331              		.loc 1 243 0 is_stmt 1
 332 0054 FFF7FEFF 		bl	NeoPixel_show
 333              	.LVL37:
 244:main.c        ****     delaytmr = delay * 10;
 334              		.loc 1 244 0
 335 0058 AB00     		lsls	r3, r5, #2
 336 005a 5B19     		adds	r3, r3, r5
 337 005c 5A00     		lsls	r2, r3, #1
 338 005e 074B     		ldr	r3, .L30
 339 0060 1A60     		str	r2, [r3]
 245:main.c        ****     q++;
 340              		.loc 1 245 0
 341 0062 5A68     		ldr	r2, [r3, #4]
 342 0064 0132     		adds	r2, r2, #1
 343 0066 5A60     		str	r2, [r3, #4]
 344              	.LVL38:
 345              	.L24:
 246:main.c        ****   }
 247:main.c        ****   if (delaytmr > 0)
 346              		.loc 1 247 0
 347 0068 044B     		ldr	r3, .L30
 348 006a 1B68     		ldr	r3, [r3]
 349 006c 002B     		cmp	r3, #0
 350 006e 02D0     		beq	.L21
 248:main.c        ****   {
 249:main.c        ****     delaytmr--;
 351              		.loc 1 249 0
 352 0070 013B     		subs	r3, r3, #1
 353 0072 024A     		ldr	r2, .L30
 354 0074 1360     		str	r3, [r2]
 355              	.L21:
 250:main.c        ****   }
 251:main.c        **** }
 356              		.loc 1 251 0
 357 0076 03B0     		add	sp, sp, #12
 358              		@ sp needed
 359              	.LVL39:
 360 0078 F0BD     		pop	{r4, r5, r6, r7, pc}
 361              	.L31:
 362 007a C046     		.align	2
 363              	.L30:
 364 007c 00000000 		.word	.LANCHOR0
 365              		.cfi_endproc
 366              	.LFE37:
 367              		.size	theaterChase, .-theaterChase
 368              		.section	.text.rainbowCycle,"ax",%progbits
ARM GAS  C:\Users\jzapn\AppData\Local\Temp\ccKtXakY.s 			page 12


 369              		.align	2
 370              		.global	rainbowCycle
 371              		.code	16
 372              		.thumb_func
 373              		.type	rainbowCycle, %function
 374              	rainbowCycle:
 375              	.LFB38:
 252:main.c        **** 
 253:main.c        **** // I rewrite this one from scrtach to use high resolution for the color wheel to look nicer on a *m
 254:main.c        **** uint32_t firstPixelHue = 0; // Color for the first pixel in the string
 255:main.c        **** 
 256:main.c        **** void rainbowCycle(uint32_t frames, uint8_t frameAdvance, uint32_t pixelAdvance, uint32_t delay)
 257:main.c        **** {
 376              		.loc 1 257 0
 377              		.cfi_startproc
 378              		@ args = 0, pretend = 0, frame = 8
 379              		@ frame_needed = 0, uses_anonymous_args = 0
 380              	.LVL40:
 381 0000 F0B5     		push	{r4, r5, r6, r7, lr}
 382              		.cfi_def_cfa_offset 20
 383              		.cfi_offset 4, -20
 384              		.cfi_offset 5, -16
 385              		.cfi_offset 6, -12
 386              		.cfi_offset 7, -8
 387              		.cfi_offset 14, -4
 388 0002 4F46     		mov	r7, r9
 389 0004 80B4     		push	{r7}
 390              		.cfi_def_cfa_offset 24
 391              		.cfi_offset 9, -24
 392 0006 82B0     		sub	sp, sp, #8
 393              		.cfi_def_cfa_offset 32
 394 0008 0191     		str	r1, [sp, #4]
 395 000a 1500     		movs	r5, r2
 396 000c 9946     		mov	r9, r3
 258:main.c        **** 
 259:main.c        ****   // Hue is a number between 0 and 3*256 than defines a mix of r->g->b where
 260:main.c        ****   // hue of 0 = Full red
 261:main.c        ****   // hue of 128 = 1/2 red and 1/2 green
 262:main.c        ****   // hue of 256 = Full Green
 263:main.c        ****   // hue of 384 = 1/2 green and 1/2 blue
 264:main.c        ****   // ...
 265:main.c        ****   if (firstPixelHue == frames)
 397              		.loc 1 265 0
 398 000e 284B     		ldr	r3, .L43
 399              	.LVL41:
 400 0010 9B68     		ldr	r3, [r3, #8]
 401 0012 8342     		cmp	r3, r0
 402 0014 02D1     		bne	.L33
 266:main.c        ****   {
 267:main.c        ****     firstPixelHue = 0;
 403              		.loc 1 267 0
 404 0016 0022     		movs	r2, #0
 405              	.LVL42:
 406 0018 254B     		ldr	r3, .L43
 407 001a 9A60     		str	r2, [r3, #8]
 408              	.L33:
 268:main.c        ****   }
ARM GAS  C:\Users\jzapn\AppData\Local\Temp\ccKtXakY.s 			page 13


 269:main.c        **** 
 270:main.c        ****   if (delaytmr == 0)
 409              		.loc 1 270 0
 410 001c 244B     		ldr	r3, .L43
 411 001e 1B68     		ldr	r3, [r3]
 412 0020 002B     		cmp	r3, #0
 413 0022 39D1     		bne	.L34
 414              	.LBB10:
 271:main.c        ****   {
 272:main.c        ****     unsigned int currentPixelHue = firstPixelHue;
 415              		.loc 1 272 0
 416 0024 224B     		ldr	r3, .L43
 417 0026 9C68     		ldr	r4, [r3, #8]
 418              	.LVL43:
 419              	.LBB11:
 273:main.c        ****     for (uint32_t i = 0; i < PIXELS; i++)
 420              		.loc 1 273 0
 421 0028 0026     		movs	r6, #0
 422 002a 26E0     		b	.L35
 423              	.LVL44:
 424              	.L41:
 425              	.LBB12:
 274:main.c        ****     {
 275:main.c        ****       if (currentPixelHue >= (3 * 256))
 426              		.loc 1 275 0
 427 002c 214B     		ldr	r3, .L43+4
 428 002e 9C42     		cmp	r4, r3
 429 0030 02D9     		bls	.L36
 276:main.c        ****       { // Normalize back down incase we incremented and overflowed
 277:main.c        ****         currentPixelHue -= (3 * 256);
 430              		.loc 1 277 0
 431 0032 214B     		ldr	r3, .L43+8
 432 0034 9C46     		mov	ip, r3
 433 0036 6444     		add	r4, r4, ip
 434              	.LVL45:
 435              	.L36:
 278:main.c        ****       }
 279:main.c        ****       uint8_t phase = currentPixelHue >> 8;
 436              		.loc 1 279 0
 437 0038 230A     		lsrs	r3, r4, #8
 438              	.LVL46:
 280:main.c        ****       uint8_t step = currentPixelHue & 0xff;
 439              		.loc 1 280 0
 440 003a E7B2     		uxtb	r7, r4
 441              	.LVL47:
 281:main.c        ****       switch (phase)
 442              		.loc 1 281 0
 443 003c FF22     		movs	r2, #255
 444 003e 1340     		ands	r3, r2
 445              	.LVL48:
 446 0040 012B     		cmp	r3, #1
 447 0042 0BD0     		beq	.L38
 448 0044 002B     		cmp	r3, #0
 449 0046 02D0     		beq	.L39
 450 0048 022B     		cmp	r3, #2
 451 004a 0ED0     		beq	.L40
 452 004c 13E0     		b	.L37
ARM GAS  C:\Users\jzapn\AppData\Local\Temp\ccKtXakY.s 			page 14


 453              	.L39:
 282:main.c        ****       {
 283:main.c        ****       case 0:
 284:main.c        ****         NeoPixel_sendPixel(~step, step, 0);
 454              		.loc 1 284 0
 455 004e F843     		mvns	r0, r7
 456 0050 C0B2     		uxtb	r0, r0
 457 0052 0022     		movs	r2, #0
 458 0054 3900     		movs	r1, r7
 459 0056 FFF7FEFF 		bl	NeoPixel_sendPixel
 460              	.LVL49:
 285:main.c        ****         break;
 461              		.loc 1 285 0
 462 005a 0CE0     		b	.L37
 463              	.L38:
 286:main.c        **** 
 287:main.c        ****       case 1:
 288:main.c        ****         NeoPixel_sendPixel(0, ~step, step);
 464              		.loc 1 288 0
 465 005c F943     		mvns	r1, r7
 466 005e C9B2     		uxtb	r1, r1
 467 0060 3A00     		movs	r2, r7
 468 0062 0020     		movs	r0, #0
 469 0064 FFF7FEFF 		bl	NeoPixel_sendPixel
 470              	.LVL50:
 289:main.c        ****         break;
 471              		.loc 1 289 0
 472 0068 05E0     		b	.L37
 473              	.L40:
 290:main.c        **** 
 291:main.c        ****       case 2:
 292:main.c        ****         NeoPixel_sendPixel(step, 0, ~step);
 474              		.loc 1 292 0
 475 006a FA43     		mvns	r2, r7
 476 006c D2B2     		uxtb	r2, r2
 477 006e 0021     		movs	r1, #0
 478 0070 3800     		movs	r0, r7
 479 0072 FFF7FEFF 		bl	NeoPixel_sendPixel
 480              	.LVL51:
 481              	.L37:
 293:main.c        ****         break;
 294:main.c        ****       }
 295:main.c        **** 
 296:main.c        ****       currentPixelHue += pixelAdvance;
 482              		.loc 1 296 0 discriminator 2
 483 0076 6419     		adds	r4, r4, r5
 484              	.LVL52:
 485              	.LBE12:
 273:main.c        ****     {
 486              		.loc 1 273 0 discriminator 2
 487 0078 0136     		adds	r6, r6, #1
 488              	.LVL53:
 489              	.L35:
 273:main.c        ****     {
 490              		.loc 1 273 0 is_stmt 0 discriminator 1
 491 007a 182E     		cmp	r6, #24
 492 007c D6D9     		bls	.L41
ARM GAS  C:\Users\jzapn\AppData\Local\Temp\ccKtXakY.s 			page 15


 493              	.LBE11:
 297:main.c        ****     }
 298:main.c        **** 
 299:main.c        ****     NeoPixel_show();
 494              		.loc 1 299 0 is_stmt 1
 495 007e FFF7FEFF 		bl	NeoPixel_show
 496              	.LVL54:
 300:main.c        ****     firstPixelHue += frameAdvance;
 497              		.loc 1 300 0
 498 0082 0B4A     		ldr	r2, .L43
 499 0084 019B     		ldr	r3, [sp, #4]
 500 0086 9168     		ldr	r1, [r2, #8]
 501 0088 8C46     		mov	ip, r1
 502 008a 6344     		add	r3, r3, ip
 503 008c 9360     		str	r3, [r2, #8]
 301:main.c        ****     delaytmr = delay * 10;
 504              		.loc 1 301 0
 505 008e 4B46     		mov	r3, r9
 506 0090 9B00     		lsls	r3, r3, #2
 507 0092 4B44     		add	r3, r3, r9
 508 0094 5900     		lsls	r1, r3, #1
 509 0096 1160     		str	r1, [r2]
 510              	.LVL55:
 511              	.L34:
 512              	.LBE10:
 302:main.c        ****   }
 303:main.c        ****   if (delaytmr > 0)
 513              		.loc 1 303 0
 514 0098 054B     		ldr	r3, .L43
 515 009a 1B68     		ldr	r3, [r3]
 516 009c 002B     		cmp	r3, #0
 517 009e 02D0     		beq	.L32
 304:main.c        ****   {
 305:main.c        ****     delaytmr--;
 518              		.loc 1 305 0
 519 00a0 013B     		subs	r3, r3, #1
 520 00a2 034A     		ldr	r2, .L43
 521 00a4 1360     		str	r3, [r2]
 522              	.L32:
 306:main.c        ****   }
 307:main.c        **** }
 523              		.loc 1 307 0
 524 00a6 02B0     		add	sp, sp, #8
 525              		@ sp needed
 526              	.LVL56:
 527              	.LVL57:
 528 00a8 04BC     		pop	{r2}
 529 00aa 9146     		mov	r9, r2
 530 00ac F0BD     		pop	{r4, r5, r6, r7, pc}
 531              	.L44:
 532 00ae C046     		.align	2
 533              	.L43:
 534 00b0 00000000 		.word	.LANCHOR0
 535 00b4 FF020000 		.word	767
 536 00b8 00FDFFFF 		.word	-768
 537              		.cfi_endproc
 538              	.LFE38:
ARM GAS  C:\Users\jzapn\AppData\Local\Temp\ccKtXakY.s 			page 16


 539              		.size	rainbowCycle, .-rainbowCycle
 540              		.global	__aeabi_ui2d
 541              		.global	__aeabi_ddiv
 542              		.global	__aeabi_d2uiz
 543              		.global	__aeabi_uidiv
 544              		.section	.text.detonate,"ax",%progbits
 545              		.align	2
 546              		.global	detonate
 547              		.code	16
 548              		.thumb_func
 549              		.type	detonate, %function
 550              	detonate:
 551              	.LFB39:
 308:main.c        **** 
 309:main.c        **** // I added this one just to demonstrate how quickly you can flash the string.
 310:main.c        **** // Flashes get faster and faster until *boom* and fade to black.
 311:main.c        **** void detonate(uint8_t r, uint8_t g, uint8_t b, uint32_t delay)
 312:main.c        **** {
 552              		.loc 1 312 0
 553              		.cfi_startproc
 554              		@ args = 0, pretend = 0, frame = 8
 555              		@ frame_needed = 0, uses_anonymous_args = 0
 556              	.LVL58:
 557 0000 F0B5     		push	{r4, r5, r6, r7, lr}
 558              		.cfi_def_cfa_offset 20
 559              		.cfi_offset 4, -20
 560              		.cfi_offset 5, -16
 561              		.cfi_offset 6, -12
 562              		.cfi_offset 7, -8
 563              		.cfi_offset 14, -4
 564 0002 4746     		mov	r7, r8
 565 0004 80B4     		push	{r7}
 566              		.cfi_def_cfa_offset 24
 567              		.cfi_offset 8, -24
 568 0006 82B0     		sub	sp, sp, #8
 569              		.cfi_def_cfa_offset 32
 570 0008 0190     		str	r0, [sp, #4]
 571 000a 0D00     		movs	r5, r1
 572 000c 1700     		movs	r7, r2
 573 000e 1E00     		movs	r6, r3
 313:main.c        ****   if (counter == 0 && state < 3)
 574              		.loc 1 313 0
 575 0010 444B     		ldr	r3, .L53
 576              	.LVL59:
 577 0012 DB68     		ldr	r3, [r3, #12]
 578 0014 002B     		cmp	r3, #0
 579 0016 44D1     		bne	.L46
 580              		.loc 1 313 0 is_stmt 0 discriminator 1
 581 0018 434B     		ldr	r3, .L53+4
 582 001a 1B78     		ldrb	r3, [r3]
 583 001c 022B     		cmp	r3, #2
 584 001e 40D8     		bhi	.L46
 314:main.c        ****   {
 315:main.c        ****     delaytmr = 0;
 585              		.loc 1 315 0 is_stmt 1
 586 0020 0021     		movs	r1, #0
 587              	.LVL60:
ARM GAS  C:\Users\jzapn\AppData\Local\Temp\ccKtXakY.s 			page 17


 588 0022 404A     		ldr	r2, .L53
 589              	.LVL61:
 590 0024 1160     		str	r1, [r2]
 316:main.c        ****     if (state == 1)
 591              		.loc 1 316 0
 592 0026 012B     		cmp	r3, #1
 593 0028 08D1     		bne	.L47
 317:main.c        ****     {
 318:main.c        ****       showColor(r, g, b, 0); // Flash the color
 594              		.loc 1 318 0
 595 002a 0023     		movs	r3, #0
 596 002c 3A00     		movs	r2, r7
 597 002e 2900     		movs	r1, r5
 598 0030 FFF7FEFF 		bl	showColor
 599              	.LVL62:
 319:main.c        ****       state = 0;
 600              		.loc 1 319 0
 601 0034 0022     		movs	r2, #0
 602 0036 3C4B     		ldr	r3, .L53+4
 603 0038 1A70     		strb	r2, [r3]
 604 003a 08E0     		b	.L48
 605              	.LVL63:
 606              	.L47:
 320:main.c        ****     }
 321:main.c        ****     else
 322:main.c        ****     {
 323:main.c        ****       showColor(0, 0, 0, 0);
 607              		.loc 1 323 0
 608 003c 0023     		movs	r3, #0
 609 003e 0022     		movs	r2, #0
 610 0040 0021     		movs	r1, #0
 611 0042 0020     		movs	r0, #0
 612              	.LVL64:
 613 0044 FFF7FEFF 		bl	showColor
 614              	.LVL65:
 324:main.c        ****       state = 1;
 615              		.loc 1 324 0
 616 0048 0122     		movs	r2, #1
 617 004a 374B     		ldr	r3, .L53+4
 618 004c 1A70     		strb	r2, [r3]
 619              	.L48:
 325:main.c        ****     }
 326:main.c        ****     statetmr = statetmr / 1.2; //gradually reduced delay
 620              		.loc 1 326 0
 621 004e 354C     		ldr	r4, .L53
 622 0050 2069     		ldr	r0, [r4, #16]
 623 0052 FFF7FEFF 		bl	__aeabi_ui2d
 624              	.LVL66:
 625 0056 354A     		ldr	r2, .L53+8
 626 0058 354B     		ldr	r3, .L53+12
 627 005a FFF7FEFF 		bl	__aeabi_ddiv
 628              	.LVL67:
 629 005e FFF7FEFF 		bl	__aeabi_d2uiz
 630              	.LVL68:
 631 0062 2061     		str	r0, [r4, #16]
 327:main.c        ****     counter = statetmr;
 632              		.loc 1 327 0
ARM GAS  C:\Users\jzapn\AppData\Local\Temp\ccKtXakY.s 			page 18


 633 0064 E060     		str	r0, [r4, #12]
 328:main.c        **** 
 329:main.c        ****     if (statetmr == 1)
 634              		.loc 1 329 0
 635 0066 0128     		cmp	r0, #1
 636 0068 10D1     		bne	.L49
 330:main.c        ****     {      showColor(0, 0, 0, 0);//black before explosion
 637              		.loc 1 330 0
 638 006a 0023     		movs	r3, #0
 639 006c 0022     		movs	r2, #0
 640 006e 0021     		movs	r1, #0
 641 0070 0020     		movs	r0, #0
 642 0072 FFF7FEFF 		bl	showColor
 643              	.LVL69:
 331:main.c        ****       fade = 256;
 644              		.loc 1 331 0
 645 0076 2B4A     		ldr	r2, .L53
 646 0078 8023     		movs	r3, #128
 647 007a 5B00     		lsls	r3, r3, #1
 648 007c 5361     		str	r3, [r2, #20]
 332:main.c        ****       state = 3;
 649              		.loc 1 332 0
 650 007e 0321     		movs	r1, #3
 651 0080 294B     		ldr	r3, .L53+4
 652 0082 1970     		strb	r1, [r3]
 333:main.c        ****       counter = delay * 500;
 653              		.loc 1 333 0
 654 0084 FA23     		movs	r3, #250
 655 0086 5B00     		lsls	r3, r3, #1
 656 0088 7343     		muls	r3, r6
 657 008a D360     		str	r3, [r2, #12]
 658              	.L49:
 334:main.c        ****     }
 335:main.c        ****     if (statetmr == 0)
 659              		.loc 1 335 0
 660 008c 254B     		ldr	r3, .L53
 661 008e 1B69     		ldr	r3, [r3, #16]
 662 0090 002B     		cmp	r3, #0
 663 0092 06D1     		bne	.L46
 336:main.c        ****     { ///start
 337:main.c        ****       statetmr = delay * 300;
 664              		.loc 1 337 0
 665 0094 2D33     		adds	r3, r3, #45
 666 0096 FF33     		adds	r3, r3, #255
 667 0098 7343     		muls	r3, r6
 668 009a 224A     		ldr	r2, .L53
 669 009c 1361     		str	r3, [r2, #16]
 338:main.c        ****       counter = 0;
 670              		.loc 1 338 0
 671 009e 0023     		movs	r3, #0
 672 00a0 D360     		str	r3, [r2, #12]
 673              	.L46:
 339:main.c        ****     }
 340:main.c        ****   }
 341:main.c        ****   if (counter > 0)
 674              		.loc 1 341 0
 675 00a2 204B     		ldr	r3, .L53
ARM GAS  C:\Users\jzapn\AppData\Local\Temp\ccKtXakY.s 			page 19


 676 00a4 DB68     		ldr	r3, [r3, #12]
 677 00a6 002B     		cmp	r3, #0
 678 00a8 02D0     		beq	.L50
 342:main.c        ****   {
 343:main.c        ****     counter--;
 679              		.loc 1 343 0
 680 00aa 013B     		subs	r3, r3, #1
 681 00ac 1D4A     		ldr	r2, .L53
 682 00ae D360     		str	r3, [r2, #12]
 683              	.L50:
 344:main.c        ****   }
 345:main.c        ****   if (counter == 0 && state == 3)
 684              		.loc 1 345 0
 685 00b0 1C4B     		ldr	r3, .L53
 686 00b2 DB68     		ldr	r3, [r3, #12]
 687 00b4 002B     		cmp	r3, #0
 688 00b6 31D1     		bne	.L45
 689              		.loc 1 345 0 is_stmt 0 discriminator 1
 690 00b8 1B4B     		ldr	r3, .L53+4
 691 00ba 1B78     		ldrb	r3, [r3]
 692 00bc 032B     		cmp	r3, #3
 693 00be 2DD1     		bne	.L45
 346:main.c        ****   {
 347:main.c        ****     // Then we fade to black....
 348:main.c        ****     
 349:main.c        ****     showColor((r * fade) / 256, (g * fade) / 256, (b * fade) / 256, 0);
 694              		.loc 1 349 0 is_stmt 1
 695 00c0 184B     		ldr	r3, .L53
 696 00c2 9846     		mov	r8, r3
 697 00c4 5A69     		ldr	r2, [r3, #20]
 698 00c6 019C     		ldr	r4, [sp, #4]
 699 00c8 5443     		muls	r4, r2
 700 00ca 240A     		lsrs	r4, r4, #8
 701 00cc 5543     		muls	r5, r2
 702 00ce 2D0A     		lsrs	r5, r5, #8
 703 00d0 7A43     		muls	r2, r7
 704 00d2 120A     		lsrs	r2, r2, #8
 705 00d4 D2B2     		uxtb	r2, r2
 706 00d6 E9B2     		uxtb	r1, r5
 707 00d8 E0B2     		uxtb	r0, r4
 708 00da 0023     		movs	r3, #0
 709 00dc FFF7FEFF 		bl	showColor
 710              	.LVL70:
 350:main.c        ****     
 351:main.c        ****     if (fade > 0)
 711              		.loc 1 351 0
 712 00e0 4346     		mov	r3, r8
 713 00e2 5B69     		ldr	r3, [r3, #20]
 714 00e4 002B     		cmp	r3, #0
 715 00e6 02D0     		beq	.L52
 352:main.c        ****     {
 353:main.c        ****       fade--;
 716              		.loc 1 353 0
 717 00e8 013B     		subs	r3, r3, #1
 718 00ea 0E4A     		ldr	r2, .L53
 719 00ec 5361     		str	r3, [r2, #20]
 720              	.L52:
ARM GAS  C:\Users\jzapn\AppData\Local\Temp\ccKtXakY.s 			page 20


 354:main.c        ****     }
 355:main.c        ****     counter = delay /10;
 721              		.loc 1 355 0
 722 00ee 0A21     		movs	r1, #10
 723 00f0 3000     		movs	r0, r6
 724 00f2 FFF7FEFF 		bl	__aeabi_uidiv
 725              	.LVL71:
 726 00f6 0B4B     		ldr	r3, .L53
 727 00f8 D860     		str	r0, [r3, #12]
 356:main.c        ****     if (fade == 0)
 728              		.loc 1 356 0
 729 00fa 5B69     		ldr	r3, [r3, #20]
 730 00fc 002B     		cmp	r3, #0
 731 00fe 0DD1     		bne	.L45
 357:main.c        ****     {
 358:main.c        ****       showColor(0, 0, 0, 0);
 732              		.loc 1 358 0
 733 0100 0022     		movs	r2, #0
 734 0102 0021     		movs	r1, #0
 735 0104 0020     		movs	r0, #0
 736 0106 FFF7FEFF 		bl	showColor
 737              	.LVL72:
 359:main.c        ****       statetmr = delay * 500;
 738              		.loc 1 359 0
 739 010a FA23     		movs	r3, #250
 740 010c 5B00     		lsls	r3, r3, #1
 741 010e 5E43     		muls	r6, r3
 742              	.LVL73:
 743 0110 044B     		ldr	r3, .L53
 744 0112 1E61     		str	r6, [r3, #16]
 360:main.c        ****       counter = statetmr;
 745              		.loc 1 360 0
 746 0114 DE60     		str	r6, [r3, #12]
 361:main.c        ****       state = 1;
 747              		.loc 1 361 0
 748 0116 0122     		movs	r2, #1
 749 0118 034B     		ldr	r3, .L53+4
 750 011a 1A70     		strb	r2, [r3]
 751              	.L45:
 362:main.c        ****     }
 363:main.c        ****   }
 364:main.c        **** }
 752              		.loc 1 364 0
 753 011c 02B0     		add	sp, sp, #8
 754              		@ sp needed
 755 011e 04BC     		pop	{r2}
 756 0120 9046     		mov	r8, r2
 757 0122 F0BD     		pop	{r4, r5, r6, r7, pc}
 758              	.L54:
 759              		.align	2
 760              	.L53:
 761 0124 00000000 		.word	.LANCHOR0
 762 0128 00000000 		.word	.LANCHOR1
 763 012c 33333333 		.word	858993459
 764 0130 3333F33F 		.word	1072902963
 765              		.cfi_endproc
 766              	.LFE39:
ARM GAS  C:\Users\jzapn\AppData\Local\Temp\ccKtXakY.s 			page 21


 767              		.size	detonate, .-detonate
 768              		.section	.text.device_task,"ax",%progbits
 769              		.align	2
 770              		.global	device_task
 771              		.code	16
 772              		.thumb_func
 773              		.type	device_task, %function
 774              	device_task:
 775              	.LFB33:
  32:main.c        ****   if (device.state != device.prev_state)
 776              		.loc 1 32 0
 777              		.cfi_startproc
 778              		@ args = 0, pretend = 0, frame = 0
 779              		@ frame_needed = 0, uses_anonymous_args = 0
 780 0000 10B5     		push	{r4, lr}
 781              		.cfi_def_cfa_offset 8
 782              		.cfi_offset 4, -8
 783              		.cfi_offset 14, -4
  33:main.c        ****   {
 784              		.loc 1 33 0
 785 0002 7A4A     		ldr	r2, .L74
 786 0004 1378     		ldrb	r3, [r2]
 787 0006 5278     		ldrb	r2, [r2, #1]
 788 0008 9342     		cmp	r3, r2
 789 000a 02D0     		beq	.L56
  35:main.c        ****   }
 790              		.loc 1 35 0
 791 000c 0121     		movs	r1, #1
 792 000e 774A     		ldr	r2, .L74
 793 0010 9170     		strb	r1, [r2, #2]
 794              	.L56:
  37:main.c        ****   switch (device.state)
 795              		.loc 1 37 0
 796 0012 764A     		ldr	r2, .L74
 797 0014 5370     		strb	r3, [r2, #1]
  38:main.c        ****   {
 798              		.loc 1 38 0
 799 0016 012B     		cmp	r3, #1
 800 0018 00D1     		bne	.LCB793
 801 001a A7E0     		b	.L58	@long jump
 802              	.LCB793:
 803 001c 002B     		cmp	r3, #0
 804 001e 05D0     		beq	.L59
 805 0020 022B     		cmp	r3, #2
 806 0022 00D1     		bne	.LCB797
 807 0024 BFE0     		b	.L60	@long jump
 808              	.LCB797:
 809 0026 032B     		cmp	r3, #3
 810 0028 5BD0     		beq	.L61
 811 002a DEE0     		b	.L55
 812              	.L59:
  42:main.c        ****     {
 813              		.loc 1 42 0
 814 002c 6F4B     		ldr	r3, .L74
 815 002e 9B78     		ldrb	r3, [r3, #2]
 816 0030 002B     		cmp	r3, #0
 817 0032 0BD0     		beq	.L62
ARM GAS  C:\Users\jzapn\AppData\Local\Temp\ccKtXakY.s 			page 22


  44:main.c        ****       device.new_state = 0;
 818              		.loc 1 44 0
 819 0034 6423     		movs	r3, #100
 820 0036 0022     		movs	r2, #0
 821 0038 0021     		movs	r1, #0
 822 003a 0020     		movs	r0, #0
 823 003c FFF7FEFF 		bl	showColor
 824              	.LVL74:
  45:main.c        ****       state = 1;
 825              		.loc 1 45 0
 826 0040 0022     		movs	r2, #0
 827 0042 6A4B     		ldr	r3, .L74
 828 0044 9A70     		strb	r2, [r3, #2]
  46:main.c        ****     }
 829              		.loc 1 46 0
 830 0046 0132     		adds	r2, r2, #1
 831 0048 694B     		ldr	r3, .L74+4
 832 004a 1A70     		strb	r2, [r3]
 833              	.L62:
  48:main.c        **** 
 834              		.loc 1 48 0
 835 004c 684C     		ldr	r4, .L74+4
 836 004e A279     		ldrb	r2, [r4, #6]
 837 0050 6179     		ldrb	r1, [r4, #5]
 838 0052 2079     		ldrb	r0, [r4, #4]
 839 0054 0023     		movs	r3, #0
 840 0056 FFF7FEFF 		bl	showColor
 841              	.LVL75:
  50:main.c        ****     {
 842              		.loc 1 50 0
 843 005a 6379     		ldrb	r3, [r4, #5]
 844 005c FF2B     		cmp	r3, #255
 845 005e 0FD0     		beq	.L63
  50:main.c        ****     {
 846              		.loc 1 50 0 is_stmt 0 discriminator 1
 847 0060 634A     		ldr	r2, .L74+4
 848 0062 1278     		ldrb	r2, [r2]
 849 0064 012A     		cmp	r2, #1
 850 0066 0BD1     		bne	.L63
  52:main.c        ****       rgb[0]--;
 851              		.loc 1 52 0 is_stmt 1
 852 0068 0133     		adds	r3, r3, #1
 853 006a DBB2     		uxtb	r3, r3
 854 006c 604A     		ldr	r2, .L74+4
 855 006e 5371     		strb	r3, [r2, #5]
  53:main.c        ****       if (rgb[1] == 255)
 856              		.loc 1 53 0
 857 0070 1179     		ldrb	r1, [r2, #4]
 858 0072 0139     		subs	r1, r1, #1
 859 0074 1171     		strb	r1, [r2, #4]
  54:main.c        ****         state = 2;
 860              		.loc 1 54 0
 861 0076 FF2B     		cmp	r3, #255
 862 0078 02D1     		bne	.L63
  55:main.c        ****     }
 863              		.loc 1 55 0
 864 007a 0222     		movs	r2, #2
ARM GAS  C:\Users\jzapn\AppData\Local\Temp\ccKtXakY.s 			page 23


 865 007c 5C4B     		ldr	r3, .L74+4
 866 007e 1A70     		strb	r2, [r3]
 867              	.L63:
  57:main.c        ****     {
 868              		.loc 1 57 0
 869 0080 5B4B     		ldr	r3, .L74+4
 870 0082 9B79     		ldrb	r3, [r3, #6]
 871 0084 FF2B     		cmp	r3, #255
 872 0086 0FD0     		beq	.L64
  57:main.c        ****     {
 873              		.loc 1 57 0 is_stmt 0 discriminator 1
 874 0088 594A     		ldr	r2, .L74+4
 875 008a 1278     		ldrb	r2, [r2]
 876 008c 022A     		cmp	r2, #2
 877 008e 0BD1     		bne	.L64
  59:main.c        ****       rgb[1]--;
 878              		.loc 1 59 0 is_stmt 1
 879 0090 0133     		adds	r3, r3, #1
 880 0092 DBB2     		uxtb	r3, r3
 881 0094 564A     		ldr	r2, .L74+4
 882 0096 9371     		strb	r3, [r2, #6]
  60:main.c        ****       if (rgb[2] == 255)
 883              		.loc 1 60 0
 884 0098 5179     		ldrb	r1, [r2, #5]
 885 009a 0139     		subs	r1, r1, #1
 886 009c 5171     		strb	r1, [r2, #5]
  61:main.c        ****         state = 3;
 887              		.loc 1 61 0
 888 009e FF2B     		cmp	r3, #255
 889 00a0 02D1     		bne	.L64
  62:main.c        ****     }
 890              		.loc 1 62 0
 891 00a2 0322     		movs	r2, #3
 892 00a4 524B     		ldr	r3, .L74+4
 893 00a6 1A70     		strb	r2, [r3]
 894              	.L64:
  64:main.c        ****     {
 895              		.loc 1 64 0
 896 00a8 514B     		ldr	r3, .L74+4
 897 00aa 1B78     		ldrb	r3, [r3]
 898 00ac 032B     		cmp	r3, #3
 899 00ae 0CD1     		bne	.L65
  66:main.c        ****       rgb[2]--;
 900              		.loc 1 66 0
 901 00b0 4F4A     		ldr	r2, .L74+4
 902 00b2 1379     		ldrb	r3, [r2, #4]
 903 00b4 0133     		adds	r3, r3, #1
 904 00b6 1371     		strb	r3, [r2, #4]
  67:main.c        ****       if (rgb[2] == 0)
 905              		.loc 1 67 0
 906 00b8 9379     		ldrb	r3, [r2, #6]
 907 00ba 013B     		subs	r3, r3, #1
 908 00bc DBB2     		uxtb	r3, r3
 909 00be 9371     		strb	r3, [r2, #6]
  68:main.c        ****         state = 1;
 910              		.loc 1 68 0
 911 00c0 002B     		cmp	r3, #0
ARM GAS  C:\Users\jzapn\AppData\Local\Temp\ccKtXakY.s 			page 24


 912 00c2 02D1     		bne	.L65
  69:main.c        ****     }
 913              		.loc 1 69 0
 914 00c4 0122     		movs	r2, #1
 915 00c6 4A4B     		ldr	r3, .L74+4
 916 00c8 1A70     		strb	r2, [r3]
 917              	.L65:
  72:main.c        ****     {
 918              		.loc 1 72 0
 919 00ca FFF7FEFF 		bl	BTN_getPressed
 920              	.LVL76:
 921 00ce 0028     		cmp	r0, #0
 922 00d0 00D1     		bne	.LCB894
 923 00d2 8AE0     		b	.L55	@long jump
 924              	.LCB894:
  74:main.c        ****       device.state = THEATER_CHASE;
 925              		.loc 1 74 0
 926 00d4 0020     		movs	r0, #0
 927 00d6 FFF7FEFF 		bl	LEDA_Write
 928              	.LVL77:
  75:main.c        ****     }
 929              		.loc 1 75 0
 930 00da 0322     		movs	r2, #3
 931 00dc 434B     		ldr	r3, .L74
 932 00de 1A70     		strb	r2, [r3]
 933 00e0 83E0     		b	.L55
 934              	.L61:
  83:main.c        ****     {
 935              		.loc 1 83 0
 936 00e2 424B     		ldr	r3, .L74
 937 00e4 9B78     		ldrb	r3, [r3, #2]
 938 00e6 002B     		cmp	r3, #0
 939 00e8 0DD0     		beq	.L66
  85:main.c        ****       device.new_state = 0;
 940              		.loc 1 85 0
 941 00ea 6423     		movs	r3, #100
 942 00ec 0022     		movs	r2, #0
 943 00ee 0021     		movs	r1, #0
 944 00f0 0020     		movs	r0, #0
 945 00f2 FFF7FEFF 		bl	showColor
 946              	.LVL78:
  86:main.c        ****       state = 1;
 947              		.loc 1 86 0
 948 00f6 0023     		movs	r3, #0
 949 00f8 3C4A     		ldr	r2, .L74
 950 00fa 9370     		strb	r3, [r2, #2]
  87:main.c        ****       delaytmr = 0;
 951              		.loc 1 87 0
 952 00fc 0121     		movs	r1, #1
 953 00fe 3C4A     		ldr	r2, .L74+4
 954 0100 1170     		strb	r1, [r2]
  88:main.c        ****     }
 955              		.loc 1 88 0
 956 0102 3C4A     		ldr	r2, .L74+8
 957 0104 1360     		str	r3, [r2]
 958              	.L66:
  90:main.c        ****     {
ARM GAS  C:\Users\jzapn\AppData\Local\Temp\ccKtXakY.s 			page 25


 959              		.loc 1 90 0
 960 0106 FFF7FEFF 		bl	BTN_getPressed
 961              	.LVL79:
 962 010a 0028     		cmp	r0, #0
 963 010c 09D0     		beq	.L67
  92:main.c        ****       if (state > 3)
 964              		.loc 1 92 0
 965 010e 384A     		ldr	r2, .L74+4
 966 0110 1378     		ldrb	r3, [r2]
 967 0112 0133     		adds	r3, r3, #1
 968 0114 DBB2     		uxtb	r3, r3
 969 0116 1370     		strb	r3, [r2]
  93:main.c        ****       {
 970              		.loc 1 93 0
 971 0118 032B     		cmp	r3, #3
 972 011a 02D9     		bls	.L67
  95:main.c        ****       }
 973              		.loc 1 95 0
 974 011c 0122     		movs	r2, #1
 975 011e 344B     		ldr	r3, .L74+4
 976 0120 1A70     		strb	r2, [r3]
 977              	.L67:
  98:main.c        ****     {
 978              		.loc 1 98 0
 979 0122 FFF7FEFF 		bl	BTN_getHeld
 980              	.LVL80:
 981 0126 0028     		cmp	r0, #0
 982 0128 02D0     		beq	.L68
 100:main.c        ****     }
 983              		.loc 1 100 0
 984 012a 0122     		movs	r2, #1
 985 012c 2F4B     		ldr	r3, .L74
 986 012e 1A70     		strb	r2, [r3]
 987              	.L68:
 103:main.c        ****     {
 988              		.loc 1 103 0
 989 0130 2F4B     		ldr	r3, .L74+4
 990 0132 1B78     		ldrb	r3, [r3]
 991 0134 022B     		cmp	r3, #2
 992 0136 0BD0     		beq	.L69
 993 0138 032B     		cmp	r3, #3
 994 013a 10D0     		beq	.L70
 995 013c 012B     		cmp	r3, #1
 996 013e 54D1     		bne	.L55
 106:main.c        ****       break;
 997              		.loc 1 106 0
 998 0140 F433     		adds	r3, r3, #244
 999 0142 FF33     		adds	r3, r3, #255
 1000 0144 7F22     		movs	r2, #127
 1001 0146 7F21     		movs	r1, #127
 1002 0148 7F20     		movs	r0, #127
 1003 014a FFF7FEFF 		bl	theaterChase
 1004              	.LVL81:
 107:main.c        ****     case 2:
 1005              		.loc 1 107 0
 1006 014e 4CE0     		b	.L55
 1007              	.L69:
ARM GAS  C:\Users\jzapn\AppData\Local\Temp\ccKtXakY.s 			page 26


 109:main.c        ****       break;
 1008              		.loc 1 109 0
 1009 0150 FA23     		movs	r3, #250
 1010 0152 0022     		movs	r2, #0
 1011 0154 0021     		movs	r1, #0
 1012 0156 7F20     		movs	r0, #127
 1013 0158 FFF7FEFF 		bl	theaterChase
 1014              	.LVL82:
 110:main.c        ****     case 3:
 1015              		.loc 1 110 0
 1016 015c 45E0     		b	.L55
 1017              	.L70:
 112:main.c        ****       break;
 1018              		.loc 1 112 0
 1019 015e 6423     		movs	r3, #100
 1020 0160 7F22     		movs	r2, #127
 1021 0162 0021     		movs	r1, #0
 1022 0164 0020     		movs	r0, #0
 1023 0166 FFF7FEFF 		bl	theaterChase
 1024              	.LVL83:
 113:main.c        ****     }
 1025              		.loc 1 113 0
 1026 016a 3EE0     		b	.L55
 1027              	.L58:
 120:main.c        ****     {
 1028              		.loc 1 120 0
 1029 016c 1F4B     		ldr	r3, .L74
 1030 016e 9B78     		ldrb	r3, [r3, #2]
 1031 0170 002B     		cmp	r3, #0
 1032 0172 08D0     		beq	.L72
 122:main.c        ****       device.new_state = 0;
 1033              		.loc 1 122 0
 1034 0174 6423     		movs	r3, #100
 1035 0176 0022     		movs	r2, #0
 1036 0178 0021     		movs	r1, #0
 1037 017a 0020     		movs	r0, #0
 1038 017c FFF7FEFF 		bl	showColor
 1039              	.LVL84:
 123:main.c        ****     }
 1040              		.loc 1 123 0
 1041 0180 0022     		movs	r2, #0
 1042 0182 1A4B     		ldr	r3, .L74
 1043 0184 9A70     		strb	r2, [r3, #2]
 1044              	.L72:
 126:main.c        ****     if (BTN_getPressed())
 1045              		.loc 1 126 0
 1046 0186 FA23     		movs	r3, #250
 1047 0188 5B00     		lsls	r3, r3, #1
 1048 018a 0522     		movs	r2, #5
 1049 018c 1421     		movs	r1, #20
 1050 018e FA20     		movs	r0, #250
 1051 0190 8000     		lsls	r0, r0, #2
 1052 0192 FFF7FEFF 		bl	rainbowCycle
 1053              	.LVL85:
 127:main.c        ****     {
 1054              		.loc 1 127 0
 1055 0196 FFF7FEFF 		bl	BTN_getPressed
ARM GAS  C:\Users\jzapn\AppData\Local\Temp\ccKtXakY.s 			page 27


 1056              	.LVL86:
 1057 019a 0028     		cmp	r0, #0
 1058 019c 25D0     		beq	.L55
 129:main.c        ****     }
 1059              		.loc 1 129 0
 1060 019e 0222     		movs	r2, #2
 1061 01a0 124B     		ldr	r3, .L74
 1062 01a2 1A70     		strb	r2, [r3]
 1063 01a4 21E0     		b	.L55
 1064              	.L60:
 135:main.c        ****     {
 1065              		.loc 1 135 0
 1066 01a6 114B     		ldr	r3, .L74
 1067 01a8 9B78     		ldrb	r3, [r3, #2]
 1068 01aa 002B     		cmp	r3, #0
 1069 01ac 0FD0     		beq	.L73
 137:main.c        ****       device.new_state = 0;
 1070              		.loc 1 137 0
 1071 01ae 6423     		movs	r3, #100
 1072 01b0 0022     		movs	r2, #0
 1073 01b2 0021     		movs	r1, #0
 1074 01b4 0020     		movs	r0, #0
 1075 01b6 FFF7FEFF 		bl	showColor
 1076              	.LVL87:
 138:main.c        ****       delaytmr = 0;
 1077              		.loc 1 138 0
 1078 01ba 0022     		movs	r2, #0
 1079 01bc 0B4B     		ldr	r3, .L74
 1080 01be 9A70     		strb	r2, [r3, #2]
 139:main.c        ****       state = 1;
 1081              		.loc 1 139 0
 1082 01c0 0C4B     		ldr	r3, .L74+8
 1083 01c2 1A60     		str	r2, [r3]
 140:main.c        ****       fade = 255;
 1084              		.loc 1 140 0
 1085 01c4 0121     		movs	r1, #1
 1086 01c6 0A4A     		ldr	r2, .L74+4
 1087 01c8 1170     		strb	r1, [r2]
 141:main.c        ****     }
 1088              		.loc 1 141 0
 1089 01ca FF22     		movs	r2, #255
 1090 01cc 5A61     		str	r2, [r3, #20]
 1091              	.L73:
 143:main.c        ****     if (BTN_getPressed())
 1092              		.loc 1 143 0
 1093 01ce FA23     		movs	r3, #250
 1094 01d0 9B00     		lsls	r3, r3, #2
 1095 01d2 FF22     		movs	r2, #255
 1096 01d4 FF21     		movs	r1, #255
 1097 01d6 FF20     		movs	r0, #255
 1098 01d8 FFF7FEFF 		bl	detonate
 1099              	.LVL88:
 144:main.c        ****     {
 1100              		.loc 1 144 0
 1101 01dc FFF7FEFF 		bl	BTN_getPressed
 1102              	.LVL89:
 1103 01e0 0028     		cmp	r0, #0
ARM GAS  C:\Users\jzapn\AppData\Local\Temp\ccKtXakY.s 			page 28


 1104 01e2 02D0     		beq	.L55
 146:main.c        ****     }
 1105              		.loc 1 146 0
 1106 01e4 0022     		movs	r2, #0
 1107 01e6 014B     		ldr	r3, .L74
 1108 01e8 1A70     		strb	r2, [r3]
 1109              	.L55:
 151:main.c        **** 
 1110              		.loc 1 151 0
 1111              		@ sp needed
 1112 01ea 10BD     		pop	{r4, pc}
 1113              	.L75:
 1114              		.align	2
 1115              	.L74:
 1116 01ec 00000000 		.word	device
 1117 01f0 00000000 		.word	.LANCHOR1
 1118 01f4 00000000 		.word	.LANCHOR0
 1119              		.cfi_endproc
 1120              	.LFE33:
 1121              		.size	device_task, .-device_task
 1122              		.section	.text.main,"ax",%progbits
 1123              		.align	2
 1124              		.global	main
 1125              		.code	16
 1126              		.thumb_func
 1127              		.type	main, %function
 1128              	main:
 1129              	.LFB34:
 154:main.c        ****   CyGlobalIntEnable; /* Enable global interrupts. */
 1130              		.loc 1 154 0
 1131              		.cfi_startproc
 1132              		@ args = 0, pretend = 0, frame = 0
 1133              		@ frame_needed = 0, uses_anonymous_args = 0
 1134 0000 10B5     		push	{r4, lr}
 1135              		.cfi_def_cfa_offset 8
 1136              		.cfi_offset 4, -8
 1137              		.cfi_offset 14, -4
 155:main.c        ****   device.state = IDLE;
 1138              		.loc 1 155 0
 1139              		.syntax divided
 1140              	@ 155 "main.c" 1
 1141 0002 62B6     		CPSIE   i
 1142              	@ 0 "" 2
 156:main.c        ****   device.new_state = true;
 1143              		.loc 1 156 0
 1144              		.thumb
 1145              		.syntax unified
 1146 0004 0C4B     		ldr	r3, .L79
 1147 0006 0022     		movs	r2, #0
 1148 0008 1A70     		strb	r2, [r3]
 157:main.c        ****   uint32_t ticks = 0;
 1149              		.loc 1 157 0
 1150 000a 0132     		adds	r2, r2, #1
 1151 000c 9A70     		strb	r2, [r3, #2]
 1152              	.LVL90:
 159:main.c        ****   for (;;)
 1153              		.loc 1 159 0
ARM GAS  C:\Users\jzapn\AppData\Local\Temp\ccKtXakY.s 			page 29


 1154 000e FFF7FEFF 		bl	NeoPixel_Init
 1155              	.LVL91:
 158:main.c        ****   NeoPixel_Init();
 1156              		.loc 1 158 0
 1157 0012 0024     		movs	r4, #0
 1158              	.LVL92:
 1159              	.L78:
 162:main.c        ****     device_task();
 1160              		.loc 1 162 0
 1161 0014 FFF7FEFF 		bl	BTN_task
 1162              	.LVL93:
 163:main.c        ****     if (ticks > 1000)
 1163              		.loc 1 163 0
 1164 0018 FFF7FEFF 		bl	device_task
 1165              	.LVL94:
 164:main.c        ****     { //HeartBeat
 1166              		.loc 1 164 0
 1167 001c FA23     		movs	r3, #250
 1168 001e 9B00     		lsls	r3, r3, #2
 1169 0020 9C42     		cmp	r4, r3
 1170 0022 07D9     		bls	.L77
 166:main.c        ****       ticks = 0;
 1171              		.loc 1 166 0
 1172 0024 FFF7FEFF 		bl	LEDA_Read
 1173              	.LVL95:
 1174 0028 4342     		rsbs	r3, r0, #0
 1175 002a 5841     		adcs	r0, r0, r3
 1176 002c C0B2     		uxtb	r0, r0
 1177 002e FFF7FEFF 		bl	LEDA_Write
 1178              	.LVL96:
 167:main.c        ****     }
 1179              		.loc 1 167 0
 1180 0032 0024     		movs	r4, #0
 1181              	.LVL97:
 1182              	.L77:
 169:main.c        ****   }
 1183              		.loc 1 169 0
 1184 0034 0134     		adds	r4, r4, #1
 1185              	.LVL98:
 170:main.c        **** }
 1186              		.loc 1 170 0
 1187 0036 EDE7     		b	.L78
 1188              	.L80:
 1189              		.align	2
 1190              	.L79:
 1191 0038 00000000 		.word	device
 1192              		.cfi_endproc
 1193              	.LFE34:
 1194              		.size	main, .-main
 1195              		.global	firstPixelHue
 1196              		.global	q
 1197              		.global	fade
 1198              		.global	statetmr
 1199              		.global	counter
 1200              		.global	delaytmr
 1201              		.global	state
 1202              		.global	ind
ARM GAS  C:\Users\jzapn\AppData\Local\Temp\ccKtXakY.s 			page 30


 1203              		.global	rgb
 1204              		.data
 1205              		.align	2
 1206              		.set	.LANCHOR1,. + 0
 1207              		.type	state, %object
 1208              		.size	state, 1
 1209              	state:
 1210 0000 01       		.byte	1
 1211 0001 000000   		.space	3
 1212              		.type	rgb, %object
 1213              		.size	rgb, 3
 1214              	rgb:
 1215 0004 FF       		.byte	-1
 1216 0005 00       		.byte	0
 1217 0006 00       		.byte	0
 1218              		.bss
 1219              		.align	2
 1220              		.set	.LANCHOR0,. + 0
 1221              		.type	delaytmr, %object
 1222              		.size	delaytmr, 4
 1223              	delaytmr:
 1224 0000 00000000 		.space	4
 1225              		.type	q, %object
 1226              		.size	q, 4
 1227              	q:
 1228 0004 00000000 		.space	4
 1229              		.type	firstPixelHue, %object
 1230              		.size	firstPixelHue, 4
 1231              	firstPixelHue:
 1232 0008 00000000 		.space	4
 1233              		.type	counter, %object
 1234              		.size	counter, 4
 1235              	counter:
 1236 000c 00000000 		.space	4
 1237              		.type	statetmr, %object
 1238              		.size	statetmr, 4
 1239              	statetmr:
 1240 0010 00000000 		.space	4
 1241              		.type	fade, %object
 1242              		.size	fade, 4
 1243              	fade:
 1244 0014 00000000 		.space	4
 1245              		.type	ind, %object
 1246              		.size	ind, 1
 1247              	ind:
 1248 0018 00       		.space	1
 1249              		.text
 1250              	.Letext0:
 1251              		.file 2 "c:\\program files (x86)\\cypress\\psoc creator\\4.4\\psoc creator\\import\\gnu\\arm\\5.4.
 1252              		.file 3 "c:\\program files (x86)\\cypress\\psoc creator\\4.4\\psoc creator\\import\\gnu\\arm\\5.4.
 1253              		.file 4 "./btns.h"
 1254              		.file 5 "Generated_Source\\PSoC4/NeoPixel_sled.h"
 1255              		.file 6 "Generated_Source\\PSoC4/LEDA.h"