ARM GAS  C:\Users\jzapn\AppData\Local\Temp\ccnjzBkb.s 			page 1


   1              		.syntax unified
   2              		.cpu cortex-m0
   3              		.fpu softvfp
   4              		.eabi_attribute 20, 1
   5              		.eabi_attribute 21, 1
   6              		.eabi_attribute 23, 3
   7              		.eabi_attribute 24, 1
   8              		.eabi_attribute 25, 1
   9              		.eabi_attribute 26, 1
  10              		.eabi_attribute 30, 1
  11              		.eabi_attribute 34, 0
  12              		.eabi_attribute 18, 4
  13              		.thumb
  14              		.syntax unified
  15              		.file	"NeoPixel_sled.c"
  16              		.text
  17              	.Ltext0:
  18              		.cfi_sections	.debug_frame
  19              		.section	.text.NeoPixel_sendBit,"ax",%progbits
  20              		.align	2
  21              		.global	NeoPixel_sendBit
  22              		.code	16
  23              		.thumb_func
  24              		.type	NeoPixel_sendBit, %function
  25              	NeoPixel_sendBit:
  26              	.LFB0:
  27              		.file 1 "Generated_Source\\PSoC4\\NeoPixel_sled.c"
   1:Generated_Source\PSoC4/NeoPixel_sled.c **** /* ========================================
   2:Generated_Source\PSoC4/NeoPixel_sled.c ****  *
   3:Generated_Source\PSoC4/NeoPixel_sled.c ****  * Copyright YOUR COMPANY, THE YEAR
   4:Generated_Source\PSoC4/NeoPixel_sled.c ****  * All Rights Reserved
   5:Generated_Source\PSoC4/NeoPixel_sled.c ****  * UNPUBLISHED, LICENSED SOFTWARE.
   6:Generated_Source\PSoC4/NeoPixel_sled.c ****  *
   7:Generated_Source\PSoC4/NeoPixel_sled.c ****  * CONFIDENTIAL AND PROPRIETARY INFORMATION
   8:Generated_Source\PSoC4/NeoPixel_sled.c ****  * WHICH IS THE PROPERTY OF your company.
   9:Generated_Source\PSoC4/NeoPixel_sled.c ****  *
  10:Generated_Source\PSoC4/NeoPixel_sled.c ****  * ========================================
  11:Generated_Source\PSoC4/NeoPixel_sled.c **** */
  12:Generated_Source\PSoC4/NeoPixel_sled.c **** /*
  13:Generated_Source\PSoC4/NeoPixel_sled.c ****  This is an example of how simple driving a Neopixel can be
  14:Generated_Source\PSoC4/NeoPixel_sled.c ****  This code is optimized for understandability and changability rather than raw speed
  15:Generated_Source\PSoC4/NeoPixel_sled.c ****  More info at http://wp.josh.com/2014/05/11/ws2812-neopixels-made-easy/
  16:Generated_Source\PSoC4/NeoPixel_sled.c **** */
  17:Generated_Source\PSoC4/NeoPixel_sled.c **** 
  18:Generated_Source\PSoC4/NeoPixel_sled.c **** #include "NeoPixel_sled.h"
  19:Generated_Source\PSoC4/NeoPixel_sled.c **** #include "NeoPixel_pixl.h"
  20:Generated_Source\PSoC4/NeoPixel_sled.c **** void NeoPixel_sendBit(bool bitVal)
  21:Generated_Source\PSoC4/NeoPixel_sled.c **** {   
  28              		.loc 1 21 0
  29              		.cfi_startproc
  30              		@ args = 0, pretend = 0, frame = 0
  31              		@ frame_needed = 0, uses_anonymous_args = 0
  32              	.LVL0:
  33 0000 70B5     		push	{r4, r5, r6, lr}
  34              		.cfi_def_cfa_offset 16
  35              		.cfi_offset 4, -16
  36              		.cfi_offset 5, -12
ARM GAS  C:\Users\jzapn\AppData\Local\Temp\ccnjzBkb.s 			page 2


  37              		.cfi_offset 6, -8
  38              		.cfi_offset 14, -4
  22:Generated_Source\PSoC4/NeoPixel_sled.c ****   if (bitVal)
  39              		.loc 1 22 0
  40 0002 0028     		cmp	r0, #0
  41 0004 0ED0     		beq	.L2
  23:Generated_Source\PSoC4/NeoPixel_sled.c ****   { // 0 bit
  24:Generated_Source\PSoC4/NeoPixel_sled.c ****     CY_SYS_PINS_SET_PIN(NeoPixel_pixl__DR, NeoPixel_pixl_SHIFT); 
  42              		.loc 1 24 0
  43 0006 0D4C     		ldr	r4, .L4
  44 0008 2368     		ldr	r3, [r4]
  45 000a 1025     		movs	r5, #16
  46 000c 2B43     		orrs	r3, r5
  47 000e 2360     		str	r3, [r4]
  25:Generated_Source\PSoC4/NeoPixel_sled.c ****     CyDelayCycles(2);
  48              		.loc 1 25 0
  49 0010 0220     		movs	r0, #2
  50              	.LVL1:
  51 0012 FFF7FEFF 		bl	CyDelayCycles
  52              	.LVL2:
  26:Generated_Source\PSoC4/NeoPixel_sled.c ****     CY_SYS_PINS_CLEAR_PIN(NeoPixel_pixl__DR, NeoPixel_pixl_SHIFT);
  53              		.loc 1 26 0
  54 0016 2368     		ldr	r3, [r4]
  55 0018 AB43     		bics	r3, r5
  56 001a 2360     		str	r3, [r4]
  27:Generated_Source\PSoC4/NeoPixel_sled.c ****     CyDelayCycles(1);
  57              		.loc 1 27 0
  58 001c 0120     		movs	r0, #1
  59 001e FFF7FEFF 		bl	CyDelayCycles
  60              	.LVL3:
  61 0022 0AE0     		b	.L1
  62              	.LVL4:
  63              	.L2:
  28:Generated_Source\PSoC4/NeoPixel_sled.c ****   }
  29:Generated_Source\PSoC4/NeoPixel_sled.c ****   else
  30:Generated_Source\PSoC4/NeoPixel_sled.c ****   { // 1 bit
  31:Generated_Source\PSoC4/NeoPixel_sled.c ****       CY_SYS_PINS_SET_PIN(NeoPixel_pixl__DR, NeoPixel_pixl_SHIFT);            
  64              		.loc 1 31 0
  65 0024 054B     		ldr	r3, .L4
  66 0026 1A68     		ldr	r2, [r3]
  67 0028 1021     		movs	r1, #16
  68 002a 0A43     		orrs	r2, r1
  69 002c 1A60     		str	r2, [r3]
  32:Generated_Source\PSoC4/NeoPixel_sled.c ****       CY_SYS_PINS_CLEAR_PIN(NeoPixel_pixl__DR, NeoPixel_pixl_SHIFT);
  70              		.loc 1 32 0
  71 002e 1A68     		ldr	r2, [r3]
  72 0030 8A43     		bics	r2, r1
  73 0032 1A60     		str	r2, [r3]
  33:Generated_Source\PSoC4/NeoPixel_sled.c ****       CyDelayCycles(1);
  74              		.loc 1 33 0
  75 0034 0120     		movs	r0, #1
  76              	.LVL5:
  77 0036 FFF7FEFF 		bl	CyDelayCycles
  78              	.LVL6:
  79              	.L1:
  34:Generated_Source\PSoC4/NeoPixel_sled.c ****   } 
  35:Generated_Source\PSoC4/NeoPixel_sled.c **** }
ARM GAS  C:\Users\jzapn\AppData\Local\Temp\ccnjzBkb.s 			page 3


  80              		.loc 1 35 0
  81              		@ sp needed
  82 003a 70BD     		pop	{r4, r5, r6, pc}
  83              	.L5:
  84              		.align	2
  85              	.L4:
  86 003c 00030440 		.word	1074004736
  87              		.cfi_endproc
  88              	.LFE0:
  89              		.size	NeoPixel_sendBit, .-NeoPixel_sendBit
  90              		.section	.text.NeoPixel_sendByte,"ax",%progbits
  91              		.align	2
  92              		.global	NeoPixel_sendByte
  93              		.code	16
  94              		.thumb_func
  95              		.type	NeoPixel_sendByte, %function
  96              	NeoPixel_sendByte:
  97              	.LFB1:
  36:Generated_Source\PSoC4/NeoPixel_sled.c **** 
  37:Generated_Source\PSoC4/NeoPixel_sled.c **** void NeoPixel_sendByte(uint8_t byte)
  38:Generated_Source\PSoC4/NeoPixel_sled.c **** {
  98              		.loc 1 38 0
  99              		.cfi_startproc
 100              		@ args = 0, pretend = 0, frame = 0
 101              		@ frame_needed = 0, uses_anonymous_args = 0
 102              	.LVL7:
 103 0000 70B5     		push	{r4, r5, r6, lr}
 104              		.cfi_def_cfa_offset 16
 105              		.cfi_offset 4, -16
 106              		.cfi_offset 5, -12
 107              		.cfi_offset 6, -8
 108              		.cfi_offset 14, -4
 109 0002 0500     		movs	r5, r0
 110              	.LVL8:
 111              	.LBB2:
  39:Generated_Source\PSoC4/NeoPixel_sled.c **** for( uint8_t bit =8 ; bit > 0 ; bit-- ) {
 112              		.loc 1 39 0
 113 0004 0824     		movs	r4, #8
 114 0006 09E0     		b	.L7
 115              	.LVL9:
 116              	.L8:
  40:Generated_Source\PSoC4/NeoPixel_sled.c ****     NeoPixel_sendBit( (byte>>bit)&0x01u );   ; // Neopixel wants bit in highest-to-lowest 
 117              		.loc 1 40 0 discriminator 3
 118 0008 2B00     		movs	r3, r5
 119 000a 2341     		asrs	r3, r3, r4
 120 000c 0120     		movs	r0, #1
 121 000e 1840     		ands	r0, r3
 122 0010 FFF7FEFF 		bl	NeoPixel_sendBit
 123              	.LVL10:
  41:Generated_Source\PSoC4/NeoPixel_sled.c ****     byte <<= 1;                            
 124              		.loc 1 41 0 discriminator 3
 125 0014 6D00     		lsls	r5, r5, #1
 126              	.LVL11:
 127 0016 EDB2     		uxtb	r5, r5
 128              	.LVL12:
  39:Generated_Source\PSoC4/NeoPixel_sled.c **** for( uint8_t bit =8 ; bit > 0 ; bit-- ) {
 129              		.loc 1 39 0 discriminator 3
ARM GAS  C:\Users\jzapn\AppData\Local\Temp\ccnjzBkb.s 			page 4


 130 0018 013C     		subs	r4, r4, #1
 131              	.LVL13:
 132 001a E4B2     		uxtb	r4, r4
 133              	.LVL14:
 134              	.L7:
  39:Generated_Source\PSoC4/NeoPixel_sled.c **** for( uint8_t bit =8 ; bit > 0 ; bit-- ) {
 135              		.loc 1 39 0 is_stmt 0 discriminator 1
 136 001c 002C     		cmp	r4, #0
 137 001e F3D1     		bne	.L8
 138              	.LBE2:
  42:Generated_Source\PSoC4/NeoPixel_sled.c ****   }
  43:Generated_Source\PSoC4/NeoPixel_sled.c **** }
 139              		.loc 1 43 0 is_stmt 1
 140              		@ sp needed
 141              	.LVL15:
 142              	.LVL16:
 143 0020 70BD     		pop	{r4, r5, r6, pc}
 144              		.cfi_endproc
 145              	.LFE1:
 146              		.size	NeoPixel_sendByte, .-NeoPixel_sendByte
 147 0022 C046     		.section	.text.NeoPixel_sendPixel,"ax",%progbits
 148              		.align	2
 149              		.global	NeoPixel_sendPixel
 150              		.code	16
 151              		.thumb_func
 152              		.type	NeoPixel_sendPixel, %function
 153              	NeoPixel_sendPixel:
 154              	.LFB2:
  44:Generated_Source\PSoC4/NeoPixel_sled.c **** 
  45:Generated_Source\PSoC4/NeoPixel_sled.c **** /*
  46:Generated_Source\PSoC4/NeoPixel_sled.c ****   The following three functions are the public API:  
  47:Generated_Source\PSoC4/NeoPixel_sled.c ****   ledSetup() - set up the pin that is connected to the string. Call once at the begining of the pro
  48:Generated_Source\PSoC4/NeoPixel_sled.c ****   sendPixel( r g , b ) - send a single pixel to the string. Call this once for each pixel in a fram
  49:Generated_Source\PSoC4/NeoPixel_sled.c ****   show() - show the recently sent pixel on the LEDs . Call once per frame.   
  50:Generated_Source\PSoC4/NeoPixel_sled.c **** */
  51:Generated_Source\PSoC4/NeoPixel_sled.c **** 
  52:Generated_Source\PSoC4/NeoPixel_sled.c **** void NeoPixel_sendPixel(uint8_t r, uint8_t g, uint8_t b)
  53:Generated_Source\PSoC4/NeoPixel_sled.c **** {
 155              		.loc 1 53 0
 156              		.cfi_startproc
 157              		@ args = 0, pretend = 0, frame = 0
 158              		@ frame_needed = 0, uses_anonymous_args = 0
 159              	.LVL17:
 160 0000 70B5     		push	{r4, r5, r6, lr}
 161              		.cfi_def_cfa_offset 16
 162              		.cfi_offset 4, -16
 163              		.cfi_offset 5, -12
 164              		.cfi_offset 6, -8
 165              		.cfi_offset 14, -4
 166 0002 0500     		movs	r5, r0
 167 0004 1400     		movs	r4, r2
  54:Generated_Source\PSoC4/NeoPixel_sled.c ****   NeoPixel_sendByte(g); // Neopixel wants colors in green then red then blue order
 168              		.loc 1 54 0
 169 0006 0800     		movs	r0, r1
 170              	.LVL18:
 171 0008 FFF7FEFF 		bl	NeoPixel_sendByte
 172              	.LVL19:
ARM GAS  C:\Users\jzapn\AppData\Local\Temp\ccnjzBkb.s 			page 5


  55:Generated_Source\PSoC4/NeoPixel_sled.c ****   NeoPixel_sendByte(r);
 173              		.loc 1 55 0
 174 000c 2800     		movs	r0, r5
 175 000e FFF7FEFF 		bl	NeoPixel_sendByte
 176              	.LVL20:
  56:Generated_Source\PSoC4/NeoPixel_sled.c ****   NeoPixel_sendByte(b);
 177              		.loc 1 56 0
 178 0012 2000     		movs	r0, r4
 179 0014 FFF7FEFF 		bl	NeoPixel_sendByte
 180              	.LVL21:
  57:Generated_Source\PSoC4/NeoPixel_sled.c **** }
 181              		.loc 1 57 0
 182              		@ sp needed
 183 0018 70BD     		pop	{r4, r5, r6, pc}
 184              		.cfi_endproc
 185              	.LFE2:
 186              		.size	NeoPixel_sendPixel, .-NeoPixel_sendPixel
 187 001a C046     		.section	.text.NeoPixel_show,"ax",%progbits
 188              		.align	2
 189              		.global	NeoPixel_show
 190              		.code	16
 191              		.thumb_func
 192              		.type	NeoPixel_show, %function
 193              	NeoPixel_show:
 194              	.LFB3:
  58:Generated_Source\PSoC4/NeoPixel_sled.c **** 
  59:Generated_Source\PSoC4/NeoPixel_sled.c **** // Just wait long enough without sending any bots to cause the pixels to latch and display the last
  60:Generated_Source\PSoC4/NeoPixel_sled.c **** 
  61:Generated_Source\PSoC4/NeoPixel_sled.c **** void NeoPixel_show()
  62:Generated_Source\PSoC4/NeoPixel_sled.c **** {
 195              		.loc 1 62 0
 196              		.cfi_startproc
 197              		@ args = 0, pretend = 0, frame = 0
 198              		@ frame_needed = 0, uses_anonymous_args = 0
 199 0000 10B5     		push	{r4, lr}
 200              		.cfi_def_cfa_offset 8
 201              		.cfi_offset 4, -8
 202              		.cfi_offset 14, -4
  63:Generated_Source\PSoC4/NeoPixel_sled.c ****   CyDelayUs(RES ); // Round up since the delay must be _at_least_ this long (too short might not wo
 203              		.loc 1 63 0
 204 0002 8220     		movs	r0, #130
 205 0004 4000     		lsls	r0, r0, #1
 206 0006 FFF7FEFF 		bl	CyDelayUs
 207              	.LVL22:
  64:Generated_Source\PSoC4/NeoPixel_sled.c **** }
 208              		.loc 1 64 0
 209              		@ sp needed
 210 000a 10BD     		pop	{r4, pc}
 211              		.cfi_endproc
 212              	.LFE3:
 213              		.size	NeoPixel_show, .-NeoPixel_show
 214              		.section	.text.NeoPixel_Init,"ax",%progbits
 215              		.align	2
 216              		.global	NeoPixel_Init
 217              		.code	16
 218              		.thumb_func
 219              		.type	NeoPixel_Init, %function
ARM GAS  C:\Users\jzapn\AppData\Local\Temp\ccnjzBkb.s 			page 6


 220              	NeoPixel_Init:
 221              	.LFB4:
  65:Generated_Source\PSoC4/NeoPixel_sled.c **** 
  66:Generated_Source\PSoC4/NeoPixel_sled.c **** void NeoPixel_Init(void)
  67:Generated_Source\PSoC4/NeoPixel_sled.c **** {
 222              		.loc 1 67 0
 223              		.cfi_startproc
 224              		@ args = 0, pretend = 0, frame = 0
 225              		@ frame_needed = 0, uses_anonymous_args = 0
 226              		@ link register save eliminated.
  68:Generated_Source\PSoC4/NeoPixel_sled.c **** 
  69:Generated_Source\PSoC4/NeoPixel_sled.c **** }
 227              		.loc 1 69 0
 228              		@ sp needed
 229 0000 7047     		bx	lr
 230              		.cfi_endproc
 231              	.LFE4:
 232              		.size	NeoPixel_Init, .-NeoPixel_Init
 233 0002 C046     		.text
 234              	.Letext0:
 235              		.file 2 "c:\\program files (x86)\\cypress\\psoc creator\\4.4\\psoc creator\\import\\gnu\\arm\\5.4.
 236              		.file 3 "c:\\program files (x86)\\cypress\\psoc creator\\4.4\\psoc creator\\import\\gnu\\arm\\5.4.
 237              		.file 4 "Generated_Source\\PSoC4\\cytypes.h"
 238              		.file 5 "Generated_Source\\PSoC4\\CyLib.h"